
resources/4.7-pwd:     file format elf64-x86-64


Disassembly of section .text:

00000000004018d0 <.text>:
  4018d0:	41 54                	push   %r12
  4018d2:	55                   	push   %rbp
  4018d3:	89 fd                	mov    %edi,%ebp
  4018d5:	bf 92 5d 40 00       	mov    $0x405d92,%edi
  4018da:	53                   	push   %rbx
  4018db:	48 89 f3             	mov    %rsi,%rbx
  4018de:	e8 2d fc ff ff       	callq  401510 <getenv@plt>
  4018e3:	48 8b 3b             	mov    (%rbx),%rdi
  4018e6:	48 85 c0             	test   %rax,%rax
  4018e9:	41 0f 95 c4          	setne  %r12b
  4018ed:	e8 7e 0c 00 00       	callq  402570 <__ctype_b_loc@plt+0xcb0>
  4018f2:	be 83 6a 40 00       	mov    $0x406a83,%esi
  4018f7:	bf 06 00 00 00       	mov    $0x6,%edi
  4018fc:	e8 ef fe ff ff       	callq  4017f0 <setlocale@plt>
  401901:	be a2 5d 40 00       	mov    $0x405da2,%esi
  401906:	bf 84 5d 40 00       	mov    $0x405d84,%edi
  40190b:	e8 b0 fc ff ff       	callq  4015c0 <bindtextdomain@plt>
  401910:	bf 84 5d 40 00       	mov    $0x405d84,%edi
  401915:	e8 76 fc ff ff       	callq  401590 <textdomain@plt>
  40191a:	bf 20 24 40 00       	mov    $0x402420,%edi
  40191f:	e8 5c 43 00 00       	callq  405c80 <__ctype_b_loc@plt+0x43c0>
  401924:	45 31 c0             	xor    %r8d,%r8d
  401927:	b9 60 61 40 00       	mov    $0x406160,%ecx
  40192c:	ba b4 5d 40 00       	mov    $0x405db4,%edx
  401931:	48 89 de             	mov    %rbx,%rsi
  401934:	89 ef                	mov    %ebp,%edi
  401936:	e8 d5 3f 00 00       	callq  405910 <__ctype_b_loc@plt+0x4050>
  40193b:	83 f8 ff             	cmp    $0xffffffff,%eax
  40193e:	74 67                	je     4019a7 <__ctype_b_loc@plt+0xe7>
  401940:	3d 7e ff ff ff       	cmp    $0xffffff7e,%eax
  401945:	74 59                	je     4019a0 <__ctype_b_loc@plt+0xe0>
  401947:	7f 36                	jg     40197f <__ctype_b_loc@plt+0xbf>
  401949:	3d 7d ff ff ff       	cmp    $0xffffff7d,%eax
  40194e:	75 39                	jne    401989 <__ctype_b_loc@plt+0xc9>
  401950:	48 8b 3d f9 68 20 00 	mov    0x2068f9(%rip),%rdi        # 608250 <stdout@@GLIBC_2.2.5>
  401957:	48 8b 0d 92 68 20 00 	mov    0x206892(%rip),%rcx        # 6081f0 <__ctype_b_loc@plt+0x206930>
  40195e:	45 31 c9             	xor    %r9d,%r9d
  401961:	41 b8 b7 5d 40 00    	mov    $0x405db7,%r8d
  401967:	ba 80 5d 40 00       	mov    $0x405d80,%edx
  40196c:	be 3b 5d 40 00       	mov    $0x405d3b,%esi
  401971:	31 c0                	xor    %eax,%eax
  401973:	e8 18 26 00 00       	callq  403f90 <__ctype_b_loc@plt+0x26d0>
  401978:	31 ff                	xor    %edi,%edi
  40197a:	e8 e1 fe ff ff       	callq  401860 <exit@plt>
  40197f:	83 f8 4c             	cmp    $0x4c,%eax
  401982:	74 0f                	je     401993 <__ctype_b_loc@plt+0xd3>
  401984:	83 f8 50             	cmp    $0x50,%eax
  401987:	74 12                	je     40199b <__ctype_b_loc@plt+0xdb>
  401989:	bf 01 00 00 00       	mov    $0x1,%edi
  40198e:	e8 3d 08 00 00       	callq  4021d0 <__ctype_b_loc@plt+0x910>
  401993:	41 bc 01 00 00 00    	mov    $0x1,%r12d
  401999:	eb 89                	jmp    401924 <__ctype_b_loc@plt+0x64>
  40199b:	45 31 e4             	xor    %r12d,%r12d
  40199e:	eb 84                	jmp    401924 <__ctype_b_loc@plt+0x64>
  4019a0:	31 ff                	xor    %edi,%edi
  4019a2:	e8 29 08 00 00       	callq  4021d0 <__ctype_b_loc@plt+0x910>
  4019a7:	3b 2d 7b 68 20 00    	cmp    0x20687b(%rip),%ebp        # 608228 <__ctype_b_loc@plt+0x206968>
  4019ad:	7f 42                	jg     4019f1 <__ctype_b_loc@plt+0x131>
  4019af:	45 84 e4             	test   %r12b,%r12b
  4019b2:	74 19                	je     4019cd <__ctype_b_loc@plt+0x10d>
  4019b4:	e8 b7 01 00 00       	callq  401b70 <__ctype_b_loc@plt+0x2b0>
  4019b9:	48 85 c0             	test   %rax,%rax
  4019bc:	74 0f                	je     4019cd <__ctype_b_loc@plt+0x10d>
  4019be:	48 89 c7             	mov    %rax,%rdi
  4019c1:	e8 ba fb ff ff       	callq  401580 <puts@plt>
  4019c6:	31 ff                	xor    %edi,%edi
  4019c8:	e8 93 fe ff ff       	callq  401860 <exit@plt>
  4019cd:	e8 5e 28 00 00       	callq  404230 <__ctype_b_loc@plt+0x2970>
  4019d2:	48 85 c0             	test   %rax,%rax
  4019d5:	48 89 c3             	mov    %rax,%rbx
  4019d8:	74 38                	je     401a12 <__ctype_b_loc@plt+0x152>
  4019da:	48 89 c7             	mov    %rax,%rdi
  4019dd:	e8 9e fb ff ff       	callq  401580 <puts@plt>
  4019e2:	48 89 df             	mov    %rbx,%rdi
  4019e5:	e8 36 fb ff ff       	callq  401520 <free@plt>
  4019ea:	31 ff                	xor    %edi,%edi
  4019ec:	e8 6f fe ff ff       	callq  401860 <exit@plt>
  4019f1:	31 ff                	xor    %edi,%edi
  4019f3:	ba 05 00 00 00       	mov    $0x5,%edx
  4019f8:	be c4 5d 40 00       	mov    $0x405dc4,%esi
  4019fd:	e8 ce fb ff ff       	callq  4015d0 <dcgettext@plt>
  401a02:	31 f6                	xor    %esi,%esi
  401a04:	48 89 c2             	mov    %rax,%rdx
  401a07:	31 ff                	xor    %edi,%edi
  401a09:	31 c0                	xor    %eax,%eax
  401a0b:	e8 10 fe ff ff       	callq  401820 <error@plt>
  401a10:	eb 9d                	jmp    4019af <__ctype_b_loc@plt+0xef>
  401a12:	bf 18 00 00 00       	mov    $0x18,%edi
  401a17:	e8 84 26 00 00       	callq  4040a0 <__ctype_b_loc@plt+0x27e0>
  401a1c:	bf 00 20 00 00       	mov    $0x2000,%edi
  401a21:	48 89 c3             	mov    %rax,%rbx
  401a24:	48 c7 40 08 00 20 00 	movq   $0x2000,0x8(%rax)
  401a2b:	00 
  401a2c:	e8 6f 26 00 00       	callq  4040a0 <__ctype_b_loc@plt+0x27e0>
  401a31:	48 8b 53 08          	mov    0x8(%rbx),%rdx
  401a35:	48 89 03             	mov    %rax,(%rbx)
  401a38:	48 89 df             	mov    %rbx,%rdi
  401a3b:	48 8d 44 10 ff       	lea    -0x1(%rax,%rdx,1),%rax
  401a40:	48 89 43 10          	mov    %rax,0x10(%rbx)
  401a44:	c6 00 00             	movb   $0x0,(%rax)
  401a47:	e8 34 03 00 00       	callq  401d80 <__ctype_b_loc@plt+0x4c0>
  401a4c:	48 8b 7b 10          	mov    0x10(%rbx),%rdi
  401a50:	e8 2b fb ff ff       	callq  401580 <puts@plt>
  401a55:	48 8b 3b             	mov    (%rbx),%rdi
  401a58:	e8 c3 fa ff ff       	callq  401520 <free@plt>
  401a5d:	48 89 df             	mov    %rbx,%rdi
  401a60:	e8 bb fa ff ff       	callq  401520 <free@plt>
  401a65:	eb 83                	jmp    4019ea <__ctype_b_loc@plt+0x12a>
  401a67:	90                   	nop
  401a68:	31 ed                	xor    %ebp,%ebp
  401a6a:	49 89 d1             	mov    %rdx,%r9
  401a6d:	5e                   	pop    %rsi
  401a6e:	48 89 e2             	mov    %rsp,%rdx
  401a71:	48 83 e4 f0          	and    $0xfffffffffffffff0,%rsp
  401a75:	50                   	push   %rax
  401a76:	54                   	push   %rsp
  401a77:	49 c7 c0 e0 5b 40 00 	mov    $0x405be0,%r8
  401a7e:	48 c7 c1 f0 5b 40 00 	mov    $0x405bf0,%rcx
  401a85:	48 c7 c7 d0 18 40 00 	mov    $0x4018d0,%rdi
  401a8c:	e8 6f fc ff ff       	callq  401700 <__libc_start_main@plt>
  401a91:	f4                   	hlt    
  401a92:	90                   	nop
  401a93:	90                   	nop
  401a94:	48 83 ec 08          	sub    $0x8,%rsp
  401a98:	48 8b 05 39 65 20 00 	mov    0x206539(%rip),%rax        # 607fd8 <__ctype_b_loc@plt+0x206718>
  401a9f:	48 85 c0             	test   %rax,%rax
  401aa2:	74 02                	je     401aa6 <__ctype_b_loc@plt+0x1e6>
  401aa4:	ff d0                	callq  *%rax
  401aa6:	48 83 c4 08          	add    $0x8,%rsp
  401aaa:	c3                   	retq   
  401aab:	90                   	nop
  401aac:	90                   	nop
  401aad:	90                   	nop
  401aae:	90                   	nop
  401aaf:	90                   	nop
  401ab0:	b8 37 82 60 00       	mov    $0x608237,%eax
  401ab5:	55                   	push   %rbp
  401ab6:	48 2d 30 82 60 00    	sub    $0x608230,%rax
  401abc:	48 83 f8 0e          	cmp    $0xe,%rax
  401ac0:	48 89 e5             	mov    %rsp,%rbp
  401ac3:	77 02                	ja     401ac7 <__ctype_b_loc@plt+0x207>
  401ac5:	5d                   	pop    %rbp
  401ac6:	c3                   	retq   
  401ac7:	b8 00 00 00 00       	mov    $0x0,%eax
  401acc:	48 85 c0             	test   %rax,%rax
  401acf:	74 f4                	je     401ac5 <__ctype_b_loc@plt+0x205>
  401ad1:	5d                   	pop    %rbp
  401ad2:	bf 30 82 60 00       	mov    $0x608230,%edi
  401ad7:	ff e0                	jmpq   *%rax
  401ad9:	0f 1f 80 00 00 00 00 	nopl   0x0(%rax)
  401ae0:	b8 30 82 60 00       	mov    $0x608230,%eax
  401ae5:	55                   	push   %rbp
  401ae6:	48 2d 30 82 60 00    	sub    $0x608230,%rax
  401aec:	48 c1 f8 03          	sar    $0x3,%rax
  401af0:	48 89 e5             	mov    %rsp,%rbp
  401af3:	48 89 c2             	mov    %rax,%rdx
  401af6:	48 c1 ea 3f          	shr    $0x3f,%rdx
  401afa:	48 01 d0             	add    %rdx,%rax
  401afd:	48 89 c6             	mov    %rax,%rsi
  401b00:	48 d1 fe             	sar    %rsi
  401b03:	75 02                	jne    401b07 <__ctype_b_loc@plt+0x247>
  401b05:	5d                   	pop    %rbp
  401b06:	c3                   	retq   
  401b07:	ba 00 00 00 00       	mov    $0x0,%edx
  401b0c:	48 85 d2             	test   %rdx,%rdx
  401b0f:	74 f4                	je     401b05 <__ctype_b_loc@plt+0x245>
  401b11:	5d                   	pop    %rbp
  401b12:	bf 30 82 60 00       	mov    $0x608230,%edi
  401b17:	ff e2                	jmpq   *%rdx
  401b19:	0f 1f 80 00 00 00 00 	nopl   0x0(%rax)
  401b20:	80 3d 49 67 20 00 00 	cmpb   $0x0,0x206749(%rip)        # 608270 <stderr@@GLIBC_2.2.5+0x8>
  401b27:	75 11                	jne    401b3a <__ctype_b_loc@plt+0x27a>
  401b29:	55                   	push   %rbp
  401b2a:	48 89 e5             	mov    %rsp,%rbp
  401b2d:	e8 7e ff ff ff       	callq  401ab0 <__ctype_b_loc@plt+0x1f0>
  401b32:	5d                   	pop    %rbp
  401b33:	c6 05 36 67 20 00 01 	movb   $0x1,0x206736(%rip)        # 608270 <stderr@@GLIBC_2.2.5+0x8>
  401b3a:	f3 c3                	repz retq 
  401b3c:	0f 1f 40 00          	nopl   0x0(%rax)
  401b40:	48 83 3d a8 62 20 00 	cmpq   $0x0,0x2062a8(%rip)        # 607df0 <__ctype_b_loc@plt+0x206530>
  401b47:	00 
  401b48:	74 1b                	je     401b65 <__ctype_b_loc@plt+0x2a5>
  401b4a:	b8 00 00 00 00       	mov    $0x0,%eax
  401b4f:	48 85 c0             	test   %rax,%rax
  401b52:	74 11                	je     401b65 <__ctype_b_loc@plt+0x2a5>
  401b54:	55                   	push   %rbp
  401b55:	bf f0 7d 60 00       	mov    $0x607df0,%edi
  401b5a:	48 89 e5             	mov    %rsp,%rbp
  401b5d:	ff d0                	callq  *%rax
  401b5f:	5d                   	pop    %rbp
  401b60:	e9 7b ff ff ff       	jmpq   401ae0 <__ctype_b_loc@plt+0x220>
  401b65:	e9 76 ff ff ff       	jmpq   401ae0 <__ctype_b_loc@plt+0x220>
  401b6a:	90                   	nop
  401b6b:	90                   	nop
  401b6c:	90                   	nop
  401b6d:	90                   	nop
  401b6e:	90                   	nop
  401b6f:	90                   	nop
  401b70:	53                   	push   %rbx
  401b71:	bf c4 5c 40 00       	mov    $0x405cc4,%edi
  401b76:	48 81 ec 20 01 00 00 	sub    $0x120,%rsp
  401b7d:	e8 8e f9 ff ff       	callq  401510 <getenv@plt>
  401b82:	48 85 c0             	test   %rax,%rax
  401b85:	48 89 c3             	mov    %rax,%rbx
  401b88:	74 46                	je     401bd0 <__ctype_b_loc@plt+0x310>
  401b8a:	80 38 2f             	cmpb   $0x2f,(%rax)
  401b8d:	48 89 c7             	mov    %rax,%rdi
  401b90:	74 0a                	je     401b9c <__ctype_b_loc@plt+0x2dc>
  401b92:	eb 3c                	jmp    401bd0 <__ctype_b_loc@plt+0x310>
  401b94:	0f 1f 40 00          	nopl   0x0(%rax)
  401b98:	48 8d 78 01          	lea    0x1(%rax),%rdi
  401b9c:	be c8 5c 40 00       	mov    $0x405cc8,%esi
  401ba1:	e8 0a fd ff ff       	callq  4018b0 <strstr@plt>
  401ba6:	48 85 c0             	test   %rax,%rax
  401ba9:	74 33                	je     401bde <__ctype_b_loc@plt+0x31e>
  401bab:	0f b6 50 02          	movzbl 0x2(%rax),%edx
  401baf:	80 fa 2f             	cmp    $0x2f,%dl
  401bb2:	74 1c                	je     401bd0 <__ctype_b_loc@plt+0x310>
  401bb4:	84 d2                	test   %dl,%dl
  401bb6:	74 18                	je     401bd0 <__ctype_b_loc@plt+0x310>
  401bb8:	80 fa 2e             	cmp    $0x2e,%dl
  401bbb:	75 db                	jne    401b98 <__ctype_b_loc@plt+0x2d8>
  401bbd:	0f b6 50 03          	movzbl 0x3(%rax),%edx
  401bc1:	80 fa 2f             	cmp    $0x2f,%dl
  401bc4:	74 0a                	je     401bd0 <__ctype_b_loc@plt+0x310>
  401bc6:	84 d2                	test   %dl,%dl
  401bc8:	75 ce                	jne    401b98 <__ctype_b_loc@plt+0x2d8>
  401bca:	66 0f 1f 44 00 00    	nopw   0x0(%rax,%rax,1)
  401bd0:	31 db                	xor    %ebx,%ebx
  401bd2:	48 81 c4 20 01 00 00 	add    $0x120,%rsp
  401bd9:	48 89 d8             	mov    %rbx,%rax
  401bdc:	5b                   	pop    %rbx
  401bdd:	c3                   	retq   
  401bde:	48 89 e2             	mov    %rsp,%rdx
  401be1:	48 89 de             	mov    %rbx,%rsi
  401be4:	bf 01 00 00 00       	mov    $0x1,%edi
  401be9:	e8 82 fb ff ff       	callq  401770 <__xstat@plt>
  401bee:	85 c0                	test   %eax,%eax
  401bf0:	75 de                	jne    401bd0 <__ctype_b_loc@plt+0x310>
  401bf2:	48 8d 94 24 90 00 00 	lea    0x90(%rsp),%rdx
  401bf9:	00 
  401bfa:	be de 5c 40 00       	mov    $0x405cde,%esi
  401bff:	bf 01 00 00 00       	mov    $0x1,%edi
  401c04:	e8 67 fb ff ff       	callq  401770 <__xstat@plt>
  401c09:	85 c0                	test   %eax,%eax
  401c0b:	75 c3                	jne    401bd0 <__ctype_b_loc@plt+0x310>
  401c0d:	48 8b 84 24 98 00 00 	mov    0x98(%rsp),%rax
  401c14:	00 
  401c15:	48 39 44 24 08       	cmp    %rax,0x8(%rsp)
  401c1a:	75 b4                	jne    401bd0 <__ctype_b_loc@plt+0x310>
  401c1c:	48 8b 84 24 90 00 00 	mov    0x90(%rsp),%rax
  401c23:	00 
  401c24:	48 39 04 24          	cmp    %rax,(%rsp)
  401c28:	74 a8                	je     401bd2 <__ctype_b_loc@plt+0x312>
  401c2a:	eb a4                	jmp    401bd0 <__ctype_b_loc@plt+0x310>
  401c2c:	0f 1f 40 00          	nopl   0x0(%rax)
  401c30:	48 89 5c 24 d0       	mov    %rbx,-0x30(%rsp)
  401c35:	48 89 6c 24 d8       	mov    %rbp,-0x28(%rsp)
  401c3a:	48 89 d5             	mov    %rdx,%rbp
  401c3d:	4c 89 64 24 e0       	mov    %r12,-0x20(%rsp)
  401c42:	4c 89 6c 24 e8       	mov    %r13,-0x18(%rsp)
  401c47:	48 8d 52 01          	lea    0x1(%rdx),%rdx
  401c4b:	4c 89 74 24 f0       	mov    %r14,-0x10(%rsp)
  401c50:	4c 89 7c 24 f8       	mov    %r15,-0x8(%rsp)
  401c55:	48 83 ec 38          	sub    $0x38,%rsp
  401c59:	48 8b 47 10          	mov    0x10(%rdi),%rax
  401c5d:	48 89 fb             	mov    %rdi,%rbx
  401c60:	49 89 f5             	mov    %rsi,%r13
  401c63:	49 89 c4             	mov    %rax,%r12
  401c66:	4c 2b 27             	sub    (%rdi),%r12
  401c69:	49 39 d4             	cmp    %rdx,%r12
  401c6c:	72 4a                	jb     401cb8 <__ctype_b_loc@plt+0x3f8>
  401c6e:	48 89 ea             	mov    %rbp,%rdx
  401c71:	4c 89 ee             	mov    %r13,%rsi
  401c74:	48 f7 d2             	not    %rdx
  401c77:	48 01 d0             	add    %rdx,%rax
  401c7a:	48 89 ea             	mov    %rbp,%rdx
  401c7d:	48 89 43 10          	mov    %rax,0x10(%rbx)
  401c81:	c6 00 2f             	movb   $0x2f,(%rax)
  401c84:	48 8b 7b 10          	mov    0x10(%rbx),%rdi
  401c88:	48 8b 6c 24 10       	mov    0x10(%rsp),%rbp
  401c8d:	48 8b 5c 24 08       	mov    0x8(%rsp),%rbx
  401c92:	4c 8b 64 24 18       	mov    0x18(%rsp),%r12
  401c97:	4c 8b 6c 24 20       	mov    0x20(%rsp),%r13
  401c9c:	4c 8b 74 24 28       	mov    0x28(%rsp),%r14
  401ca1:	4c 8b 7c 24 30       	mov    0x30(%rsp),%r15
  401ca6:	48 83 c7 01          	add    $0x1,%rdi
  401caa:	48 83 c4 38          	add    $0x38,%rsp
  401cae:	e9 8d fa ff ff       	jmpq   401740 <memcpy@plt>
  401cb3:	0f 1f 44 00 00       	nopl   0x0(%rax,%rax,1)
  401cb8:	48 8b 47 08          	mov    0x8(%rdi),%rax
  401cbc:	31 d2                	xor    %edx,%edx
  401cbe:	4c 8d 74 05 01       	lea    0x1(%rbp,%rax,1),%r14
  401cc3:	48 c7 c0 ff ff ff ff 	mov    $0xffffffffffffffff,%rax
  401cca:	49 f7 f6             	div    %r14
  401ccd:	48 83 f8 01          	cmp    $0x1,%rax
  401cd1:	76 45                	jbe    401d18 <__ctype_b_loc@plt+0x458>
  401cd3:	4d 01 f6             	add    %r14,%r14
  401cd6:	4c 89 f7             	mov    %r14,%rdi
  401cd9:	e8 c2 23 00 00       	callq  4040a0 <__ctype_b_loc@plt+0x27e0>
  401cde:	48 8b 53 08          	mov    0x8(%rbx),%rdx
  401ce2:	48 8b 33             	mov    (%rbx),%rsi
  401ce5:	4c 89 f7             	mov    %r14,%rdi
  401ce8:	49 89 c7             	mov    %rax,%r15
  401ceb:	4c 29 e2             	sub    %r12,%rdx
  401cee:	4c 01 e6             	add    %r12,%rsi
  401cf1:	48 29 d7             	sub    %rdx,%rdi
  401cf4:	48 01 c7             	add    %rax,%rdi
  401cf7:	48 89 7b 10          	mov    %rdi,0x10(%rbx)
  401cfb:	e8 40 fa ff ff       	callq  401740 <memcpy@plt>
  401d00:	48 8b 3b             	mov    (%rbx),%rdi
  401d03:	e8 18 f8 ff ff       	callq  401520 <free@plt>
  401d08:	4c 89 3b             	mov    %r15,(%rbx)
  401d0b:	4c 89 73 08          	mov    %r14,0x8(%rbx)
  401d0f:	48 8b 43 10          	mov    0x10(%rbx),%rax
  401d13:	e9 56 ff ff ff       	jmpq   401c6e <__ctype_b_loc@plt+0x3ae>
  401d18:	e8 d3 24 00 00       	callq  4041f0 <__ctype_b_loc@plt+0x2930>
  401d1d:	0f 1f 00             	nopl   (%rax)
  401d20:	31 d2                	xor    %edx,%edx
  401d22:	48 c7 c0 ff ff ff ff 	mov    $0xffffffffffffffff,%rax
  401d29:	55                   	push   %rbp
  401d2a:	48 f7 f7             	div    %rdi
  401d2d:	53                   	push   %rbx
  401d2e:	48 89 fb             	mov    %rdi,%rbx
  401d31:	48 83 ec 08          	sub    $0x8,%rsp
  401d35:	48 83 f8 02          	cmp    $0x2,%rax
  401d39:	76 3f                	jbe    401d7a <__ctype_b_loc@plt+0x4ba>
  401d3b:	48 8d 2c 7f          	lea    (%rdi,%rdi,2),%rbp
  401d3f:	48 89 ef             	mov    %rbp,%rdi
  401d42:	e8 59 23 00 00       	callq  4040a0 <__ctype_b_loc@plt+0x27e0>
  401d47:	48 85 db             	test   %rbx,%rbx
  401d4a:	74 29                	je     401d75 <__ctype_b_loc@plt+0x4b5>
  401d4c:	48 8d 3c 28          	lea    (%rax,%rbp,1),%rdi
  401d50:	48 89 c2             	mov    %rax,%rdx
  401d53:	0f 1f 44 00 00       	nopl   0x0(%rax,%rax,1)
  401d58:	66 c7 02 2e 2e       	movw   $0x2e2e,(%rdx)
  401d5d:	c6 42 02 2f          	movb   $0x2f,0x2(%rdx)
  401d61:	48 83 c2 03          	add    $0x3,%rdx
  401d65:	48 39 fa             	cmp    %rdi,%rdx
  401d68:	75 ee                	jne    401d58 <__ctype_b_loc@plt+0x498>
  401d6a:	c6 42 ff 00          	movb   $0x0,-0x1(%rdx)
  401d6e:	48 83 c4 08          	add    $0x8,%rsp
  401d72:	5b                   	pop    %rbx
  401d73:	5d                   	pop    %rbp
  401d74:	c3                   	retq   
  401d75:	48 89 c2             	mov    %rax,%rdx
  401d78:	eb f0                	jmp    401d6a <__ctype_b_loc@plt+0x4aa>
  401d7a:	e8 71 24 00 00       	callq  4041f0 <__ctype_b_loc@plt+0x2930>
  401d7f:	90                   	nop
  401d80:	41 57                	push   %r15
  401d82:	41 56                	push   %r14
  401d84:	41 55                	push   %r13
  401d86:	41 54                	push   %r12
  401d88:	55                   	push   %rbp
  401d89:	53                   	push   %rbx
  401d8a:	48 81 ec e8 01 00 00 	sub    $0x1e8,%rsp
  401d91:	48 89 7c 24 18       	mov    %rdi,0x18(%rsp)
  401d96:	48 8d 7c 24 20       	lea    0x20(%rsp),%rdi
  401d9b:	e8 f0 3b 00 00       	callq  405990 <__ctype_b_loc@plt+0x40d0>
  401da0:	48 85 c0             	test   %rax,%rax
  401da3:	49 89 c7             	mov    %rax,%r15
  401da6:	0f 84 de 03 00 00    	je     40218a <__ctype_b_loc@plt+0x8ca>
  401dac:	48 8d 44 24 30       	lea    0x30(%rsp),%rax
  401db1:	be de 5c 40 00       	mov    $0x405cde,%esi
  401db6:	bf 01 00 00 00       	mov    $0x1,%edi
  401dbb:	48 89 c2             	mov    %rax,%rdx
  401dbe:	48 89 44 24 08       	mov    %rax,0x8(%rsp)
  401dc3:	e8 a8 f9 ff ff       	callq  401770 <__xstat@plt>
  401dc8:	85 c0                	test   %eax,%eax
  401dca:	0f 88 7b 03 00 00    	js     40214b <__ctype_b_loc@plt+0x88b>
  401dd0:	48 8d 94 24 c0 00 00 	lea    0xc0(%rsp),%rdx
  401dd7:	00 
  401dd8:	41 bd 01 00 00 00    	mov    $0x1,%r13d
  401dde:	48 89 14 24          	mov    %rdx,(%rsp)
  401de2:	49 8b 07             	mov    (%r15),%rax
  401de5:	48 39 44 24 38       	cmp    %rax,0x38(%rsp)
  401dea:	75 0f                	jne    401dfb <__ctype_b_loc@plt+0x53b>
  401dec:	49 8b 57 08          	mov    0x8(%r15),%rdx
  401df0:	48 39 54 24 30       	cmp    %rdx,0x30(%rsp)
  401df5:	0f 84 1f 03 00 00    	je     40211a <__ctype_b_loc@plt+0x85a>
  401dfb:	49 8d 45 01          	lea    0x1(%r13),%rax
  401dff:	bf dd 5c 40 00       	mov    $0x405cdd,%edi
  401e04:	48 89 44 24 10       	mov    %rax,0x10(%rsp)
  401e09:	e8 a2 f7 ff ff       	callq  4015b0 <opendir@plt>
  401e0e:	48 85 c0             	test   %rax,%rax
  401e11:	48 89 c3             	mov    %rax,%rbx
  401e14:	0f 84 b8 02 00 00    	je     4020d2 <__ctype_b_loc@plt+0x812>
  401e1a:	e8 21 f7 ff ff       	callq  401540 <__errno_location@plt>
  401e1f:	49 89 c4             	mov    %rax,%r12
  401e22:	48 89 df             	mov    %rbx,%rdi
  401e25:	e8 26 f9 ff ff       	callq  401750 <dirfd@plt>
  401e2a:	85 c0                	test   %eax,%eax
  401e2c:	89 c5                	mov    %eax,%ebp
  401e2e:	0f 88 8c 02 00 00    	js     4020c0 <__ctype_b_loc@plt+0x800>
  401e34:	89 c7                	mov    %eax,%edi
  401e36:	e8 95 f9 ff ff       	callq  4017d0 <fchdir@plt>
  401e3b:	c1 e8 1f             	shr    $0x1f,%eax
  401e3e:	84 c0                	test   %al,%al
  401e40:	0f 85 19 02 00 00    	jne    40205f <__ctype_b_loc@plt+0x79f>
  401e46:	85 ed                	test   %ebp,%ebp
  401e48:	48 8d 94 24 c0 00 00 	lea    0xc0(%rsp),%rdx
  401e4f:	00 
  401e50:	0f 88 53 02 00 00    	js     4020a9 <__ctype_b_loc@plt+0x7e9>
  401e56:	89 ee                	mov    %ebp,%esi
  401e58:	bf 01 00 00 00       	mov    $0x1,%edi
  401e5d:	e8 4e f9 ff ff       	callq  4017b0 <__fxstat@plt>
  401e62:	c1 e8 1f             	shr    $0x1f,%eax
  401e65:	84 c0                	test   %al,%al
  401e67:	0f 85 b3 01 00 00    	jne    402020 <__ctype_b_loc@plt+0x760>
  401e6d:	48 8b 54 24 30       	mov    0x30(%rsp),%rdx
  401e72:	48 39 94 24 c0 00 00 	cmp    %rdx,0xc0(%rsp)
  401e79:	00 
  401e7a:	40 0f 95 c5          	setne  %bpl
  401e7e:	66 90                	xchg   %ax,%ax
  401e80:	41 c7 04 24 00 00 00 	movl   $0x0,(%r12)
  401e87:	00 
  401e88:	48 89 df             	mov    %rbx,%rdi
  401e8b:	e8 f0 f8 ff ff       	callq  401780 <readdir@plt>
  401e90:	48 85 c0             	test   %rax,%rax
  401e93:	49 89 c6             	mov    %rax,%r14
  401e96:	0f 84 64 01 00 00    	je     402000 <__ctype_b_loc@plt+0x740>
  401e9c:	80 78 13 2e          	cmpb   $0x2e,0x13(%rax)
  401ea0:	0f 84 fa 00 00 00    	je     401fa0 <__ctype_b_loc@plt+0x6e0>
  401ea6:	49 8b 06             	mov    (%r14),%rax
  401ea9:	48 85 c0             	test   %rax,%rax
  401eac:	0f 84 1e 01 00 00    	je     401fd0 <__ctype_b_loc@plt+0x710>
  401eb2:	40 84 ed             	test   %bpl,%bpl
  401eb5:	0f 85 15 01 00 00    	jne    401fd0 <__ctype_b_loc@plt+0x710>
  401ebb:	48 39 44 24 38       	cmp    %rax,0x38(%rsp)
  401ec0:	75 be                	jne    401e80 <__ctype_b_loc@plt+0x5c0>
  401ec2:	40 84 ed             	test   %bpl,%bpl
  401ec5:	74 0f                	je     401ed6 <__ctype_b_loc@plt+0x616>
  401ec7:	48 8b 44 24 30       	mov    0x30(%rsp),%rax
  401ecc:	48 39 84 24 50 01 00 	cmp    %rax,0x150(%rsp)
  401ed3:	00 
  401ed4:	75 aa                	jne    401e80 <__ctype_b_loc@plt+0x5c0>
  401ed6:	49 8d 6e 13          	lea    0x13(%r14),%rbp
  401eda:	48 89 ef             	mov    %rbp,%rdi
  401edd:	e8 0e f7 ff ff       	callq  4015f0 <strlen@plt>
  401ee2:	48 8b 7c 24 18       	mov    0x18(%rsp),%rdi
  401ee7:	48 89 ee             	mov    %rbp,%rsi
  401eea:	48 89 c2             	mov    %rax,%rdx
  401eed:	bd 01 00 00 00       	mov    $0x1,%ebp
  401ef2:	e8 39 fd ff ff       	callq  401c30 <__ctype_b_loc@plt+0x370>
  401ef7:	48 85 db             	test   %rbx,%rbx
  401efa:	74 0c                	je     401f08 <__ctype_b_loc@plt+0x648>
  401efc:	48 89 df             	mov    %rbx,%rdi
  401eff:	e8 cc f7 ff ff       	callq  4016d0 <closedir@plt>
  401f04:	85 c0                	test   %eax,%eax
  401f06:	74 3a                	je     401f42 <__ctype_b_loc@plt+0x682>
  401f08:	4c 89 ef             	mov    %r13,%rdi
  401f0b:	e8 10 fe ff ff       	callq  401d20 <__ctype_b_loc@plt+0x460>
  401f10:	48 89 c7             	mov    %rax,%rdi
  401f13:	e8 08 07 00 00       	callq  402620 <__ctype_b_loc@plt+0xd60>
  401f18:	ba 05 00 00 00       	mov    $0x5,%edx
  401f1d:	be 0f 5d 40 00       	mov    $0x405d0f,%esi
  401f22:	31 ff                	xor    %edi,%edi
  401f24:	48 89 c3             	mov    %rax,%rbx
  401f27:	e8 a4 f6 ff ff       	callq  4015d0 <dcgettext@plt>
  401f2c:	41 8b 34 24          	mov    (%r12),%esi
  401f30:	48 89 c2             	mov    %rax,%rdx
  401f33:	48 89 d9             	mov    %rbx,%rcx
  401f36:	bf 01 00 00 00       	mov    $0x1,%edi
  401f3b:	31 c0                	xor    %eax,%eax
  401f3d:	e8 de f8 ff ff       	callq  401820 <error@plt>
  401f42:	40 84 ed             	test   %bpl,%bpl
  401f45:	75 38                	jne    401f7f <__ctype_b_loc@plt+0x6bf>
  401f47:	4c 89 ef             	mov    %r13,%rdi
  401f4a:	e8 d1 fd ff ff       	callq  401d20 <__ctype_b_loc@plt+0x460>
  401f4f:	48 89 c7             	mov    %rax,%rdi
  401f52:	e8 c9 06 00 00       	callq  402620 <__ctype_b_loc@plt+0xd60>
  401f57:	ba 05 00 00 00       	mov    $0x5,%edx
  401f5c:	48 89 c3             	mov    %rax,%rbx
  401f5f:	be 20 5e 40 00       	mov    $0x405e20,%esi
  401f64:	31 ff                	xor    %edi,%edi
  401f66:	e8 65 f6 ff ff       	callq  4015d0 <dcgettext@plt>
  401f6b:	48 89 d9             	mov    %rbx,%rcx
  401f6e:	48 89 c2             	mov    %rax,%rdx
  401f71:	31 f6                	xor    %esi,%esi
  401f73:	bf 01 00 00 00       	mov    $0x1,%edi
  401f78:	31 c0                	xor    %eax,%eax
  401f7a:	e8 a1 f8 ff ff       	callq  401820 <error@plt>
  401f7f:	48 8b 7c 24 08       	mov    0x8(%rsp),%rdi
  401f84:	48 8b 34 24          	mov    (%rsp),%rsi
  401f88:	b9 12 00 00 00       	mov    $0x12,%ecx
  401f8d:	4c 8b 6c 24 10       	mov    0x10(%rsp),%r13
  401f92:	f3 48 a5             	rep movsq %ds:(%rsi),%es:(%rdi)
  401f95:	e9 48 fe ff ff       	jmpq   401de2 <__ctype_b_loc@plt+0x522>
  401f9a:	66 0f 1f 44 00 00    	nopw   0x0(%rax,%rax,1)
  401fa0:	0f b6 40 14          	movzbl 0x14(%rax),%eax
  401fa4:	3c 2e                	cmp    $0x2e,%al
  401fa6:	74 18                	je     401fc0 <__ctype_b_loc@plt+0x700>
  401fa8:	3c 2f                	cmp    $0x2f,%al
  401faa:	0f 84 d8 fe ff ff    	je     401e88 <__ctype_b_loc@plt+0x5c8>
  401fb0:	84 c0                	test   %al,%al
  401fb2:	0f 84 d0 fe ff ff    	je     401e88 <__ctype_b_loc@plt+0x5c8>
  401fb8:	e9 e9 fe ff ff       	jmpq   401ea6 <__ctype_b_loc@plt+0x5e6>
  401fbd:	0f 1f 00             	nopl   (%rax)
  401fc0:	41 0f b6 46 15       	movzbl 0x15(%r14),%eax
  401fc5:	eb e1                	jmp    401fa8 <__ctype_b_loc@plt+0x6e8>
  401fc7:	66 0f 1f 84 00 00 00 	nopw   0x0(%rax,%rax,1)
  401fce:	00 00 
  401fd0:	49 8d 76 13          	lea    0x13(%r14),%rsi
  401fd4:	48 8d 94 24 50 01 00 	lea    0x150(%rsp),%rdx
  401fdb:	00 
  401fdc:	bf 01 00 00 00       	mov    $0x1,%edi
  401fe1:	e8 1a f6 ff ff       	callq  401600 <__lxstat@plt>
  401fe6:	85 c0                	test   %eax,%eax
  401fe8:	0f 88 92 fe ff ff    	js     401e80 <__ctype_b_loc@plt+0x5c0>
  401fee:	48 8b 84 24 58 01 00 	mov    0x158(%rsp),%rax
  401ff5:	00 
  401ff6:	e9 c0 fe ff ff       	jmpq   401ebb <__ctype_b_loc@plt+0x5fb>
  401ffb:	0f 1f 44 00 00       	nopl   0x0(%rax,%rax,1)
  402000:	45 8b 34 24          	mov    (%r12),%r14d
  402004:	31 ed                	xor    %ebp,%ebp
  402006:	45 85 f6             	test   %r14d,%r14d
  402009:	0f 84 e8 fe ff ff    	je     401ef7 <__ctype_b_loc@plt+0x637>
  40200f:	48 89 df             	mov    %rbx,%rdi
  402012:	e8 b9 f6 ff ff       	callq  4016d0 <closedir@plt>
  402017:	45 89 34 24          	mov    %r14d,(%r12)
  40201b:	e9 e8 fe ff ff       	jmpq   401f08 <__ctype_b_loc@plt+0x648>
  402020:	4c 89 ef             	mov    %r13,%rdi
  402023:	e8 f8 fc ff ff       	callq  401d20 <__ctype_b_loc@plt+0x460>
  402028:	48 89 c7             	mov    %rax,%rdi
  40202b:	e8 f0 05 00 00       	callq  402620 <__ctype_b_loc@plt+0xd60>
  402030:	31 ff                	xor    %edi,%edi
  402032:	ba 05 00 00 00       	mov    $0x5,%edx
  402037:	be cb 5c 40 00       	mov    $0x405ccb,%esi
  40203c:	48 89 c5             	mov    %rax,%rbp
  40203f:	e8 8c f5 ff ff       	callq  4015d0 <dcgettext@plt>
  402044:	41 8b 34 24          	mov    (%r12),%esi
  402048:	48 89 c2             	mov    %rax,%rdx
  40204b:	48 89 e9             	mov    %rbp,%rcx
  40204e:	bf 01 00 00 00       	mov    $0x1,%edi
  402053:	31 c0                	xor    %eax,%eax
  402055:	e8 c6 f7 ff ff       	callq  401820 <error@plt>
  40205a:	e9 0e fe ff ff       	jmpq   401e6d <__ctype_b_loc@plt+0x5ad>
  40205f:	4c 89 ef             	mov    %r13,%rdi
  402062:	e8 b9 fc ff ff       	callq  401d20 <__ctype_b_loc@plt+0x460>
  402067:	48 89 c7             	mov    %rax,%rdi
  40206a:	e8 b1 05 00 00       	callq  402620 <__ctype_b_loc@plt+0xd60>
  40206f:	31 ff                	xor    %edi,%edi
  402071:	ba 05 00 00 00       	mov    $0x5,%edx
  402076:	be f9 5c 40 00       	mov    $0x405cf9,%esi
  40207b:	49 89 c6             	mov    %rax,%r14
  40207e:	e8 4d f5 ff ff       	callq  4015d0 <dcgettext@plt>
  402083:	41 8b 34 24          	mov    (%r12),%esi
  402087:	48 89 c2             	mov    %rax,%rdx
  40208a:	4c 89 f1             	mov    %r14,%rcx
  40208d:	31 c0                	xor    %eax,%eax
  40208f:	bf 01 00 00 00       	mov    $0x1,%edi
  402094:	e8 87 f7 ff ff       	callq  401820 <error@plt>
  402099:	85 ed                	test   %ebp,%ebp
  40209b:	48 8d 94 24 c0 00 00 	lea    0xc0(%rsp),%rdx
  4020a2:	00 
  4020a3:	0f 89 ad fd ff ff    	jns    401e56 <__ctype_b_loc@plt+0x596>
  4020a9:	be de 5c 40 00       	mov    $0x405cde,%esi
  4020ae:	bf 01 00 00 00       	mov    $0x1,%edi
  4020b3:	e8 b8 f6 ff ff       	callq  401770 <__xstat@plt>
  4020b8:	c1 e8 1f             	shr    $0x1f,%eax
  4020bb:	e9 a5 fd ff ff       	jmpq   401e65 <__ctype_b_loc@plt+0x5a5>
  4020c0:	bf dd 5c 40 00       	mov    $0x405cdd,%edi
  4020c5:	e8 56 f5 ff ff       	callq  401620 <chdir@plt>
  4020ca:	c1 e8 1f             	shr    $0x1f,%eax
  4020cd:	e9 6c fd ff ff       	jmpq   401e3e <__ctype_b_loc@plt+0x57e>
  4020d2:	4c 89 ef             	mov    %r13,%rdi
  4020d5:	e8 46 fc ff ff       	callq  401d20 <__ctype_b_loc@plt+0x460>
  4020da:	48 89 c7             	mov    %rax,%rdi
  4020dd:	e8 3e 05 00 00       	callq  402620 <__ctype_b_loc@plt+0xd60>
  4020e2:	31 ff                	xor    %edi,%edi
  4020e4:	ba 05 00 00 00       	mov    $0x5,%edx
  4020e9:	be e0 5c 40 00       	mov    $0x405ce0,%esi
  4020ee:	48 89 c5             	mov    %rax,%rbp
  4020f1:	e8 da f4 ff ff       	callq  4015d0 <dcgettext@plt>
  4020f6:	49 89 c6             	mov    %rax,%r14
  4020f9:	e8 42 f4 ff ff       	callq  401540 <__errno_location@plt>
  4020fe:	8b 30                	mov    (%rax),%esi
  402100:	49 89 c4             	mov    %rax,%r12
  402103:	48 89 e9             	mov    %rbp,%rcx
  402106:	4c 89 f2             	mov    %r14,%rdx
  402109:	bf 01 00 00 00       	mov    $0x1,%edi
  40210e:	31 c0                	xor    %eax,%eax
  402110:	e8 0b f7 ff ff       	callq  401820 <error@plt>
  402115:	e9 08 fd ff ff       	jmpq   401e22 <__ctype_b_loc@plt+0x562>
  40211a:	48 8b 54 24 18       	mov    0x18(%rsp),%rdx
  40211f:	48 8b 42 10          	mov    0x10(%rdx),%rax
  402123:	80 38 00             	cmpb   $0x0,(%rax)
  402126:	75 11                	jne    402139 <__ctype_b_loc@plt+0x879>
  402128:	48 8b 7c 24 18       	mov    0x18(%rsp),%rdi
  40212d:	31 d2                	xor    %edx,%edx
  40212f:	be 83 6a 40 00       	mov    $0x406a83,%esi
  402134:	e8 f7 fa ff ff       	callq  401c30 <__ctype_b_loc@plt+0x370>
  402139:	48 81 c4 e8 01 00 00 	add    $0x1e8,%rsp
  402140:	5b                   	pop    %rbx
  402141:	5d                   	pop    %rbp
  402142:	41 5c                	pop    %r12
  402144:	41 5d                	pop    %r13
  402146:	41 5e                	pop    %r14
  402148:	41 5f                	pop    %r15
  40214a:	c3                   	retq   
  40214b:	bf de 5c 40 00       	mov    $0x405cde,%edi
  402150:	e8 cb 04 00 00       	callq  402620 <__ctype_b_loc@plt+0xd60>
  402155:	31 ff                	xor    %edi,%edi
  402157:	ba 05 00 00 00       	mov    $0x5,%edx
  40215c:	be cb 5c 40 00       	mov    $0x405ccb,%esi
  402161:	48 89 c5             	mov    %rax,%rbp
  402164:	e8 67 f4 ff ff       	callq  4015d0 <dcgettext@plt>
  402169:	48 89 c3             	mov    %rax,%rbx
  40216c:	e8 cf f3 ff ff       	callq  401540 <__errno_location@plt>
  402171:	8b 30                	mov    (%rax),%esi
  402173:	48 89 e9             	mov    %rbp,%rcx
  402176:	48 89 da             	mov    %rbx,%rdx
  402179:	bf 01 00 00 00       	mov    $0x1,%edi
  40217e:	31 c0                	xor    %eax,%eax
  402180:	e8 9b f6 ff ff       	callq  401820 <error@plt>
  402185:	e9 46 fc ff ff       	jmpq   401dd0 <__ctype_b_loc@plt+0x510>
  40218a:	bf 56 62 40 00       	mov    $0x406256,%edi
  40218f:	e8 8c 04 00 00       	callq  402620 <__ctype_b_loc@plt+0xd60>
  402194:	31 ff                	xor    %edi,%edi
  402196:	ba 05 00 00 00       	mov    $0x5,%edx
  40219b:	be 00 5e 40 00       	mov    $0x405e00,%esi
  4021a0:	48 89 c5             	mov    %rax,%rbp
  4021a3:	e8 28 f4 ff ff       	callq  4015d0 <dcgettext@plt>
  4021a8:	48 89 c3             	mov    %rax,%rbx
  4021ab:	e8 90 f3 ff ff       	callq  401540 <__errno_location@plt>
  4021b0:	8b 30                	mov    (%rax),%esi
  4021b2:	48 89 e9             	mov    %rbp,%rcx
  4021b5:	48 89 da             	mov    %rbx,%rdx
  4021b8:	bf 01 00 00 00       	mov    $0x1,%edi
  4021bd:	31 c0                	xor    %eax,%eax
  4021bf:	e8 5c f6 ff ff       	callq  401820 <error@plt>
  4021c4:	e9 e3 fb ff ff       	jmpq   401dac <__ctype_b_loc@plt+0x4ec>
  4021c9:	0f 1f 80 00 00 00 00 	nopl   0x0(%rax)
  4021d0:	55                   	push   %rbp
  4021d1:	ba 05 00 00 00       	mov    $0x5,%edx
  4021d6:	53                   	push   %rbx
  4021d7:	89 fb                	mov    %edi,%ebx
  4021d9:	48 83 ec 08          	sub    $0x8,%rsp
  4021dd:	85 ff                	test   %edi,%edi
  4021df:	48 8b 2d a2 60 20 00 	mov    0x2060a2(%rip),%rbp        # 608288 <stderr@@GLIBC_2.2.5+0x20>
  4021e6:	74 2c                	je     402214 <__ctype_b_loc@plt+0x954>
  4021e8:	be 60 5e 40 00       	mov    $0x405e60,%esi
  4021ed:	31 ff                	xor    %edi,%edi
  4021ef:	e8 dc f3 ff ff       	callq  4015d0 <dcgettext@plt>
  4021f4:	48 8b 3d 6d 60 20 00 	mov    0x20606d(%rip),%rdi        # 608268 <stderr@@GLIBC_2.2.5>
  4021fb:	48 89 c2             	mov    %rax,%rdx
  4021fe:	48 89 e9             	mov    %rbp,%rcx
  402201:	be 01 00 00 00       	mov    $0x1,%esi
  402206:	31 c0                	xor    %eax,%eax
  402208:	e8 73 f6 ff ff       	callq  401880 <__fprintf_chk@plt>
  40220d:	89 df                	mov    %ebx,%edi
  40220f:	e8 4c f6 ff ff       	callq  401860 <exit@plt>
  402214:	31 ff                	xor    %edi,%edi
  402216:	be 24 5d 40 00       	mov    $0x405d24,%esi
  40221b:	e8 b0 f3 ff ff       	callq  4015d0 <dcgettext@plt>
  402220:	48 89 ea             	mov    %rbp,%rdx
  402223:	48 89 c6             	mov    %rax,%rsi
  402226:	bf 01 00 00 00       	mov    $0x1,%edi
  40222b:	31 c0                	xor    %eax,%eax
  40222d:	e8 ce f5 ff ff       	callq  401800 <__printf_chk@plt>
  402232:	48 8b 2d 17 60 20 00 	mov    0x206017(%rip),%rbp        # 608250 <stdout@@GLIBC_2.2.5>
  402239:	ba 05 00 00 00       	mov    $0x5,%edx
  40223e:	31 ff                	xor    %edi,%edi
  402240:	be 88 5e 40 00       	mov    $0x405e88,%esi
  402245:	e8 86 f3 ff ff       	callq  4015d0 <dcgettext@plt>
  40224a:	48 89 ee             	mov    %rbp,%rsi
  40224d:	48 89 c7             	mov    %rax,%rdi
  402250:	e8 cb f4 ff ff       	callq  401720 <fputs_unlocked@plt>
  402255:	48 8b 2d f4 5f 20 00 	mov    0x205ff4(%rip),%rbp        # 608250 <stdout@@GLIBC_2.2.5>
  40225c:	ba 05 00 00 00       	mov    $0x5,%edx
  402261:	31 ff                	xor    %edi,%edi
  402263:	be c8 5e 40 00       	mov    $0x405ec8,%esi
  402268:	e8 63 f3 ff ff       	callq  4015d0 <dcgettext@plt>
  40226d:	48 89 ee             	mov    %rbp,%rsi
  402270:	48 89 c7             	mov    %rax,%rdi
  402273:	e8 a8 f4 ff ff       	callq  401720 <fputs_unlocked@plt>
  402278:	48 8b 2d d1 5f 20 00 	mov    0x205fd1(%rip),%rbp        # 608250 <stdout@@GLIBC_2.2.5>
  40227f:	ba 05 00 00 00       	mov    $0x5,%edx
  402284:	31 ff                	xor    %edi,%edi
  402286:	be 38 5f 40 00       	mov    $0x405f38,%esi
  40228b:	e8 40 f3 ff ff       	callq  4015d0 <dcgettext@plt>
  402290:	48 89 ee             	mov    %rbp,%rsi
  402293:	48 89 c7             	mov    %rax,%rdi
  402296:	e8 85 f4 ff ff       	callq  401720 <fputs_unlocked@plt>
  40229b:	48 8b 2d ae 5f 20 00 	mov    0x205fae(%rip),%rbp        # 608250 <stdout@@GLIBC_2.2.5>
  4022a2:	ba 05 00 00 00       	mov    $0x5,%edx
  4022a7:	31 ff                	xor    %edi,%edi
  4022a9:	be 68 5f 40 00       	mov    $0x405f68,%esi
  4022ae:	e8 1d f3 ff ff       	callq  4015d0 <dcgettext@plt>
  4022b3:	48 89 ee             	mov    %rbp,%rsi
  4022b6:	48 89 c7             	mov    %rax,%rdi
  4022b9:	e8 62 f4 ff ff       	callq  401720 <fputs_unlocked@plt>
  4022be:	31 ff                	xor    %edi,%edi
  4022c0:	ba 05 00 00 00       	mov    $0x5,%edx
  4022c5:	be a0 5f 40 00       	mov    $0x405fa0,%esi
  4022ca:	e8 01 f3 ff ff       	callq  4015d0 <dcgettext@plt>
  4022cf:	ba 3b 5d 40 00       	mov    $0x405d3b,%edx
  4022d4:	48 89 c6             	mov    %rax,%rsi
  4022d7:	bf 01 00 00 00       	mov    $0x1,%edi
  4022dc:	31 c0                	xor    %eax,%eax
  4022de:	e8 1d f5 ff ff       	callq  401800 <__printf_chk@plt>
  4022e3:	48 8b 3d 9e 5f 20 00 	mov    0x205f9e(%rip),%rdi        # 608288 <stderr@@GLIBC_2.2.5+0x20>
  4022ea:	e8 f1 01 00 00       	callq  4024e0 <__ctype_b_loc@plt+0xc20>
  4022ef:	31 ff                	xor    %edi,%edi
  4022f1:	48 89 c5             	mov    %rax,%rbp
  4022f4:	ba 05 00 00 00       	mov    $0x5,%edx
  4022f9:	be 3f 5d 40 00       	mov    $0x405d3f,%esi
  4022fe:	e8 cd f2 ff ff       	callq  4015d0 <dcgettext@plt>
  402303:	b9 56 5d 40 00       	mov    $0x405d56,%ecx
  402308:	48 89 ea             	mov    %rbp,%rdx
  40230b:	48 89 c6             	mov    %rax,%rsi
  40230e:	bf 01 00 00 00       	mov    $0x1,%edi
  402313:	31 c0                	xor    %eax,%eax
  402315:	e8 e6 f4 ff ff       	callq  401800 <__printf_chk@plt>
  40231a:	31 ff                	xor    %edi,%edi
  40231c:	ba 05 00 00 00       	mov    $0x5,%edx
  402321:	be 6c 5d 40 00       	mov    $0x405d6c,%esi
  402326:	e8 a5 f2 ff ff       	callq  4015d0 <dcgettext@plt>
  40232b:	b9 60 60 40 00       	mov    $0x406060,%ecx
  402330:	48 89 c6             	mov    %rax,%rsi
  402333:	ba 80 5d 40 00       	mov    $0x405d80,%edx
  402338:	bf 01 00 00 00       	mov    $0x1,%edi
  40233d:	31 c0                	xor    %eax,%eax
  40233f:	e8 bc f4 ff ff       	callq  401800 <__printf_chk@plt>
  402344:	48 8b 2d 05 5f 20 00 	mov    0x205f05(%rip),%rbp        # 608250 <stdout@@GLIBC_2.2.5>
  40234b:	ba 05 00 00 00       	mov    $0x5,%edx
  402350:	31 ff                	xor    %edi,%edi
  402352:	be 88 60 40 00       	mov    $0x406088,%esi
  402357:	e8 74 f2 ff ff       	callq  4015d0 <dcgettext@plt>
  40235c:	48 89 ee             	mov    %rbp,%rsi
  40235f:	48 89 c7             	mov    %rax,%rdi
  402362:	e8 b9 f3 ff ff       	callq  401720 <fputs_unlocked@plt>
  402367:	31 f6                	xor    %esi,%esi
  402369:	bf 05 00 00 00       	mov    $0x5,%edi
  40236e:	e8 7d f4 ff ff       	callq  4017f0 <setlocale@plt>
  402373:	48 85 c0             	test   %rax,%rax
  402376:	74 16                	je     40238e <__ctype_b_loc@plt+0xace>
  402378:	ba 03 00 00 00       	mov    $0x3,%edx
  40237d:	be 8e 5d 40 00       	mov    $0x405d8e,%esi
  402382:	48 89 c7             	mov    %rax,%rdi
  402385:	e8 c6 f1 ff ff       	callq  401550 <strncmp@plt>
  40238a:	85 c0                	test   %eax,%eax
  40238c:	75 37                	jne    4023c5 <__ctype_b_loc@plt+0xb05>
  40238e:	48 8b 3d f3 5e 20 00 	mov    0x205ef3(%rip),%rdi        # 608288 <stderr@@GLIBC_2.2.5+0x20>
  402395:	e8 46 01 00 00       	callq  4024e0 <__ctype_b_loc@plt+0xc20>
  40239a:	31 ff                	xor    %edi,%edi
  40239c:	48 89 c5             	mov    %rax,%rbp
  40239f:	ba 05 00 00 00       	mov    $0x5,%edx
  4023a4:	be 10 61 40 00       	mov    $0x406110,%esi
  4023a9:	e8 22 f2 ff ff       	callq  4015d0 <dcgettext@plt>
  4023ae:	48 89 ea             	mov    %rbp,%rdx
  4023b1:	48 89 c6             	mov    %rax,%rsi
  4023b4:	bf 01 00 00 00       	mov    $0x1,%edi
  4023b9:	31 c0                	xor    %eax,%eax
  4023bb:	e8 40 f4 ff ff       	callq  401800 <__printf_chk@plt>
  4023c0:	e9 48 fe ff ff       	jmpq   40220d <__ctype_b_loc@plt+0x94d>
  4023c5:	48 8b 3d bc 5e 20 00 	mov    0x205ebc(%rip),%rdi        # 608288 <stderr@@GLIBC_2.2.5+0x20>
  4023cc:	e8 0f 01 00 00       	callq  4024e0 <__ctype_b_loc@plt+0xc20>
  4023d1:	31 ff                	xor    %edi,%edi
  4023d3:	48 89 c5             	mov    %rax,%rbp
  4023d6:	ba 05 00 00 00       	mov    $0x5,%edx
  4023db:	be c8 60 40 00       	mov    $0x4060c8,%esi
  4023e0:	e8 eb f1 ff ff       	callq  4015d0 <dcgettext@plt>
  4023e5:	48 89 ea             	mov    %rbp,%rdx
  4023e8:	48 89 c6             	mov    %rax,%rsi
  4023eb:	bf 01 00 00 00       	mov    $0x1,%edi
  4023f0:	31 c0                	xor    %eax,%eax
  4023f2:	e8 09 f4 ff ff       	callq  401800 <__printf_chk@plt>
  4023f7:	eb 95                	jmp    40238e <__ctype_b_loc@plt+0xace>
  4023f9:	90                   	nop
  4023fa:	90                   	nop
  4023fb:	90                   	nop
  4023fc:	90                   	nop
  4023fd:	90                   	nop
  4023fe:	90                   	nop
  4023ff:	90                   	nop
  402400:	48 89 3d 71 5e 20 00 	mov    %rdi,0x205e71(%rip)        # 608278 <stderr@@GLIBC_2.2.5+0x10>
  402407:	c3                   	retq   
  402408:	0f 1f 84 00 00 00 00 	nopl   0x0(%rax,%rax,1)
  40240f:	00 
  402410:	40 88 3d 69 5e 20 00 	mov    %dil,0x205e69(%rip)        # 608280 <stderr@@GLIBC_2.2.5+0x18>
  402417:	c3                   	retq   
  402418:	0f 1f 84 00 00 00 00 	nopl   0x0(%rax,%rax,1)
  40241f:	00 
  402420:	48 89 5c 24 f0       	mov    %rbx,-0x10(%rsp)
  402425:	48 89 6c 24 f8       	mov    %rbp,-0x8(%rsp)
  40242a:	48 83 ec 18          	sub    $0x18,%rsp
  40242e:	48 8b 3d 1b 5e 20 00 	mov    0x205e1b(%rip),%rdi        # 608250 <stdout@@GLIBC_2.2.5>
  402435:	e8 a6 35 00 00       	callq  4059e0 <__ctype_b_loc@plt+0x4120>
  40243a:	85 c0                	test   %eax,%eax
  40243c:	74 13                	je     402451 <__ctype_b_loc@plt+0xb91>
  40243e:	80 3d 3b 5e 20 00 00 	cmpb   $0x0,0x205e3b(%rip)        # 608280 <stderr@@GLIBC_2.2.5+0x18>
  402445:	74 29                	je     402470 <__ctype_b_loc@plt+0xbb0>
  402447:	e8 f4 f0 ff ff       	callq  401540 <__errno_location@plt>
  40244c:	83 38 20             	cmpl   $0x20,(%rax)
  40244f:	75 1f                	jne    402470 <__ctype_b_loc@plt+0xbb0>
  402451:	48 8b 3d 10 5e 20 00 	mov    0x205e10(%rip),%rdi        # 608268 <stderr@@GLIBC_2.2.5>
  402458:	e8 83 35 00 00       	callq  4059e0 <__ctype_b_loc@plt+0x4120>
  40245d:	85 c0                	test   %eax,%eax
  40245f:	75 52                	jne    4024b3 <__ctype_b_loc@plt+0xbf3>
  402461:	48 8b 5c 24 08       	mov    0x8(%rsp),%rbx
  402466:	48 8b 6c 24 10       	mov    0x10(%rsp),%rbp
  40246b:	48 83 c4 18          	add    $0x18,%rsp
  40246f:	c3                   	retq   
  402470:	31 ff                	xor    %edi,%edi
  402472:	ba 05 00 00 00       	mov    $0x5,%edx
  402477:	be 05 62 40 00       	mov    $0x406205,%esi
  40247c:	e8 4f f1 ff ff       	callq  4015d0 <dcgettext@plt>
  402481:	48 8b 3d f0 5d 20 00 	mov    0x205df0(%rip),%rdi        # 608278 <stderr@@GLIBC_2.2.5+0x10>
  402488:	48 89 c3             	mov    %rax,%rbx
  40248b:	48 85 ff             	test   %rdi,%rdi
  40248e:	74 2e                	je     4024be <__ctype_b_loc@plt+0xbfe>
  402490:	e8 8b 14 00 00       	callq  403920 <__ctype_b_loc@plt+0x2060>
  402495:	48 89 c5             	mov    %rax,%rbp
  402498:	e8 a3 f0 ff ff       	callq  401540 <__errno_location@plt>
  40249d:	8b 30                	mov    (%rax),%esi
  40249f:	49 89 d8             	mov    %rbx,%r8
  4024a2:	48 89 e9             	mov    %rbp,%rcx
  4024a5:	ba 11 62 40 00       	mov    $0x406211,%edx
  4024aa:	31 ff                	xor    %edi,%edi
  4024ac:	31 c0                	xor    %eax,%eax
  4024ae:	e8 6d f3 ff ff       	callq  401820 <error@plt>
  4024b3:	8b 3d 3f 5d 20 00    	mov    0x205d3f(%rip),%edi        # 6081f8 <__ctype_b_loc@plt+0x206938>
  4024b9:	e8 a2 f0 ff ff       	callq  401560 <_exit@plt>
  4024be:	e8 7d f0 ff ff       	callq  401540 <__errno_location@plt>
  4024c3:	8b 30                	mov    (%rax),%esi
  4024c5:	48 89 d9             	mov    %rbx,%rcx
  4024c8:	ba 15 62 40 00       	mov    $0x406215,%edx
  4024cd:	31 ff                	xor    %edi,%edi
  4024cf:	31 c0                	xor    %eax,%eax
  4024d1:	e8 4a f3 ff ff       	callq  401820 <error@plt>
  4024d6:	eb db                	jmp    4024b3 <__ctype_b_loc@plt+0xbf3>
  4024d8:	90                   	nop
  4024d9:	90                   	nop
  4024da:	90                   	nop
  4024db:	90                   	nop
  4024dc:	90                   	nop
  4024dd:	90                   	nop
  4024de:	90                   	nop
  4024df:	90                   	nop
  4024e0:	0f b6 17             	movzbl (%rdi),%edx
  4024e3:	48 89 f8             	mov    %rdi,%rax
  4024e6:	80 fa 2f             	cmp    $0x2f,%dl
  4024e9:	75 11                	jne    4024fc <__ctype_b_loc@plt+0xc3c>
  4024eb:	0f 1f 44 00 00       	nopl   0x0(%rax,%rax,1)
  4024f0:	48 83 c0 01          	add    $0x1,%rax
  4024f4:	0f b6 10             	movzbl (%rax),%edx
  4024f7:	80 fa 2f             	cmp    $0x2f,%dl
  4024fa:	74 f4                	je     4024f0 <__ctype_b_loc@plt+0xc30>
  4024fc:	84 d2                	test   %dl,%dl
  4024fe:	74 2d                	je     40252d <__ctype_b_loc@plt+0xc6d>
  402500:	48 89 c2             	mov    %rax,%rdx
  402503:	31 f6                	xor    %esi,%esi
  402505:	0f 1f 00             	nopl   (%rax)
  402508:	48 83 c2 01          	add    $0x1,%rdx
  40250c:	0f b6 0a             	movzbl (%rdx),%ecx
  40250f:	84 c9                	test   %cl,%cl
  402511:	74 1a                	je     40252d <__ctype_b_loc@plt+0xc6d>
  402513:	80 f9 2f             	cmp    $0x2f,%cl
  402516:	74 18                	je     402530 <__ctype_b_loc@plt+0xc70>
  402518:	40 84 f6             	test   %sil,%sil
  40251b:	74 eb                	je     402508 <__ctype_b_loc@plt+0xc48>
  40251d:	48 89 d0             	mov    %rdx,%rax
  402520:	48 83 c2 01          	add    $0x1,%rdx
  402524:	31 f6                	xor    %esi,%esi
  402526:	0f b6 0a             	movzbl (%rdx),%ecx
  402529:	84 c9                	test   %cl,%cl
  40252b:	75 e6                	jne    402513 <__ctype_b_loc@plt+0xc53>
  40252d:	f3 c3                	repz retq 
  40252f:	90                   	nop
  402530:	be 01 00 00 00       	mov    $0x1,%esi
  402535:	eb d1                	jmp    402508 <__ctype_b_loc@plt+0xc48>
  402537:	66 0f 1f 84 00 00 00 	nopw   0x0(%rax,%rax,1)
  40253e:	00 00 
  402540:	53                   	push   %rbx
  402541:	48 89 fb             	mov    %rdi,%rbx
  402544:	e8 a7 f0 ff ff       	callq  4015f0 <strlen@plt>
  402549:	48 83 f8 01          	cmp    $0x1,%rax
  40254d:	76 07                	jbe    402556 <__ctype_b_loc@plt+0xc96>
  40254f:	80 7c 03 ff 2f       	cmpb   $0x2f,-0x1(%rbx,%rax,1)
  402554:	74 0a                	je     402560 <__ctype_b_loc@plt+0xca0>
  402556:	5b                   	pop    %rbx
  402557:	c3                   	retq   
  402558:	0f 1f 84 00 00 00 00 	nopl   0x0(%rax,%rax,1)
  40255f:	00 
  402560:	48 83 e8 01          	sub    $0x1,%rax
  402564:	48 83 f8 01          	cmp    $0x1,%rax
  402568:	75 e5                	jne    40254f <__ctype_b_loc@plt+0xc8f>
  40256a:	5b                   	pop    %rbx
  40256b:	c3                   	retq   
  40256c:	90                   	nop
  40256d:	90                   	nop
  40256e:	90                   	nop
  40256f:	90                   	nop
  402570:	48 85 ff             	test   %rdi,%rdi
  402573:	53                   	push   %rbx
  402574:	48 89 fb             	mov    %rdi,%rbx
  402577:	74 6a                	je     4025e3 <__ctype_b_loc@plt+0xd23>
  402579:	be 2f 00 00 00       	mov    $0x2f,%esi
  40257e:	e8 ed f0 ff ff       	callq  401670 <strrchr@plt>
  402583:	48 85 c0             	test   %rax,%rax
  402586:	74 4b                	je     4025d3 <__ctype_b_loc@plt+0xd13>
  402588:	48 8d 50 01          	lea    0x1(%rax),%rdx
  40258c:	48 89 d1             	mov    %rdx,%rcx
  40258f:	48 29 d9             	sub    %rbx,%rcx
  402592:	48 83 f9 06          	cmp    $0x6,%rcx
  402596:	7e 3b                	jle    4025d3 <__ctype_b_loc@plt+0xd13>
  402598:	48 8d 70 fa          	lea    -0x6(%rax),%rsi
  40259c:	bf 50 62 40 00       	mov    $0x406250,%edi
  4025a1:	b9 07 00 00 00       	mov    $0x7,%ecx
  4025a6:	f3 a6                	repz cmpsb %es:(%rdi),%ds:(%rsi)
  4025a8:	75 29                	jne    4025d3 <__ctype_b_loc@plt+0xd13>
  4025aa:	b9 03 00 00 00       	mov    $0x3,%ecx
  4025af:	48 89 d6             	mov    %rdx,%rsi
  4025b2:	bf 58 62 40 00       	mov    $0x406258,%edi
  4025b7:	f3 a6                	repz cmpsb %es:(%rdi),%ds:(%rsi)
  4025b9:	48 89 d3             	mov    %rdx,%rbx
  4025bc:	40 0f 97 c6          	seta   %sil
  4025c0:	0f 92 c1             	setb   %cl
  4025c3:	40 38 ce             	cmp    %cl,%sil
  4025c6:	75 0b                	jne    4025d3 <__ctype_b_loc@plt+0xd13>
  4025c8:	48 8d 58 04          	lea    0x4(%rax),%rbx
  4025cc:	48 89 1d 6d 5c 20 00 	mov    %rbx,0x205c6d(%rip)        # 608240 <__progname@@GLIBC_2.2.5>
  4025d3:	48 89 1d ae 5c 20 00 	mov    %rbx,0x205cae(%rip)        # 608288 <stderr@@GLIBC_2.2.5+0x20>
  4025da:	48 89 1d 7f 5c 20 00 	mov    %rbx,0x205c7f(%rip)        # 608260 <__progname_full@@GLIBC_2.2.5>
  4025e1:	5b                   	pop    %rbx
  4025e2:	c3                   	retq   
  4025e3:	48 8b 0d 7e 5c 20 00 	mov    0x205c7e(%rip),%rcx        # 608268 <stderr@@GLIBC_2.2.5>
  4025ea:	ba 37 00 00 00       	mov    $0x37,%edx
  4025ef:	be 01 00 00 00       	mov    $0x1,%esi
  4025f4:	bf 18 62 40 00       	mov    $0x406218,%edi
  4025f9:	e8 72 f2 ff ff       	callq  401870 <fwrite@plt>
  4025fe:	e8 2d ef ff ff       	callq  401530 <abort@plt>
  402603:	90                   	nop
  402604:	90                   	nop
  402605:	90                   	nop
  402606:	90                   	nop
  402607:	90                   	nop
  402608:	90                   	nop
  402609:	90                   	nop
  40260a:	90                   	nop
  40260b:	90                   	nop
  40260c:	90                   	nop
  40260d:	90                   	nop
  40260e:	90                   	nop
  40260f:	90                   	nop
  402610:	48 89 f2             	mov    %rsi,%rdx
  402613:	be 06 00 00 00       	mov    $0x6,%esi
  402618:	e9 a3 11 00 00       	jmpq   4037c0 <__ctype_b_loc@plt+0x1f00>
  40261d:	0f 1f 00             	nopl   (%rax)
  402620:	48 89 fe             	mov    %rdi,%rsi
  402623:	31 ff                	xor    %edi,%edi
  402625:	e9 e6 ff ff ff       	jmpq   402610 <__ctype_b_loc@plt+0xd50>
  40262a:	90                   	nop
  40262b:	90                   	nop
  40262c:	90                   	nop
  40262d:	90                   	nop
  40262e:	90                   	nop
  40262f:	90                   	nop
  402630:	48 83 ec 48          	sub    $0x48,%rsp
  402634:	31 c0                	xor    %eax,%eax
  402636:	48 89 fa             	mov    %rdi,%rdx
  402639:	b9 07 00 00 00       	mov    $0x7,%ecx
  40263e:	48 89 e7             	mov    %rsp,%rdi
  402641:	83 fe 08             	cmp    $0x8,%esi
  402644:	f3 48 ab             	rep stos %rax,%es:(%rdi)
  402647:	74 48                	je     402691 <__ctype_b_loc@plt+0xdd1>
  402649:	89 34 24             	mov    %esi,(%rsp)
  40264c:	48 8b 04 24          	mov    (%rsp),%rax
  402650:	48 89 02             	mov    %rax,(%rdx)
  402653:	48 8b 44 24 08       	mov    0x8(%rsp),%rax
  402658:	48 89 42 08          	mov    %rax,0x8(%rdx)
  40265c:	48 8b 44 24 10       	mov    0x10(%rsp),%rax
  402661:	48 89 42 10          	mov    %rax,0x10(%rdx)
  402665:	48 8b 44 24 18       	mov    0x18(%rsp),%rax
  40266a:	48 89 42 18          	mov    %rax,0x18(%rdx)
  40266e:	48 8b 44 24 20       	mov    0x20(%rsp),%rax
  402673:	48 89 42 20          	mov    %rax,0x20(%rdx)
  402677:	48 8b 44 24 28       	mov    0x28(%rsp),%rax
  40267c:	48 89 42 28          	mov    %rax,0x28(%rdx)
  402680:	48 8b 44 24 30       	mov    0x30(%rsp),%rax
  402685:	48 89 42 30          	mov    %rax,0x30(%rdx)
  402689:	48 89 d0             	mov    %rdx,%rax
  40268c:	48 83 c4 48          	add    $0x48,%rsp
  402690:	c3                   	retq   
  402691:	e8 9a ee ff ff       	callq  401530 <abort@plt>
  402696:	66 2e 0f 1f 84 00 00 	nopw   %cs:0x0(%rax,%rax,1)
  40269d:	00 00 00 
  4026a0:	41 57                	push   %r15
  4026a2:	49 89 f7             	mov    %rsi,%r15
  4026a5:	41 56                	push   %r14
  4026a7:	41 55                	push   %r13
  4026a9:	49 89 d5             	mov    %rdx,%r13
  4026ac:	41 54                	push   %r12
  4026ae:	55                   	push   %rbp
  4026af:	53                   	push   %rbx
  4026b0:	48 81 ec c8 00 00 00 	sub    $0xc8,%rsp
  4026b7:	48 8b 84 24 00 01 00 	mov    0x100(%rsp),%rax
  4026be:	00 
  4026bf:	48 89 7c 24 38       	mov    %rdi,0x38(%rsp)
  4026c4:	64 48 8b 14 25 28 00 	mov    %fs:0x28,%rdx
  4026cb:	00 00 
  4026cd:	48 89 94 24 b8 00 00 	mov    %rdx,0xb8(%rsp)
  4026d4:	00 
  4026d5:	31 d2                	xor    %edx,%edx
  4026d7:	44 89 44 24 48       	mov    %r8d,0x48(%rsp)
  4026dc:	44 89 8c 24 90 00 00 	mov    %r9d,0x90(%rsp)
  4026e3:	00 
  4026e4:	48 89 44 24 50       	mov    %rax,0x50(%rsp)
  4026e9:	48 8b 84 24 08 01 00 	mov    0x108(%rsp),%rax
  4026f0:	00 
  4026f1:	48 89 4c 24 20       	mov    %rcx,0x20(%rsp)
  4026f6:	48 89 44 24 70       	mov    %rax,0x70(%rsp)
  4026fb:	48 8b 84 24 10 01 00 	mov    0x110(%rsp),%rax
  402702:	00 
  402703:	48 89 44 24 68       	mov    %rax,0x68(%rsp)
  402708:	e8 d3 ee ff ff       	callq  4015e0 <__ctype_get_mb_cur_max@plt>
  40270d:	48 89 44 24 78       	mov    %rax,0x78(%rsp)
  402712:	8b 84 24 90 00 00 00 	mov    0x90(%rsp),%eax
  402719:	4c 8b 5c 24 20       	mov    0x20(%rsp),%r11
  40271e:	d1 e8                	shr    %eax
  402720:	83 e0 01             	and    $0x1,%eax
  402723:	83 7c 24 48 08       	cmpl   $0x8,0x48(%rsp)
  402728:	88 44 24 4e          	mov    %al,0x4e(%rsp)
  40272c:	76 0a                	jbe    402738 <__ctype_b_loc@plt+0xe78>
  40272e:	e8 fd ed ff ff       	callq  401530 <abort@plt>
  402733:	0f 1f 44 00 00       	nopl   0x0(%rax,%rax,1)
  402738:	8b 44 24 48          	mov    0x48(%rsp),%eax
  40273c:	ff 24 c5 a0 62 40 00 	jmpq   *0x4062a0(,%rax,8)
  402743:	c6 44 24 4e 00       	movb   $0x0,0x4e(%rsp)
  402748:	c6 44 24 4d 01       	movb   $0x1,0x4d(%rsp)
  40274d:	45 31 f6             	xor    %r14d,%r14d
  402750:	48 c7 44 24 58 00 00 	movq   $0x0,0x58(%rsp)
  402757:	00 00 
  402759:	31 db                	xor    %ebx,%ebx
  40275b:	0f 1f 44 00 00       	nopl   0x0(%rax,%rax,1)
  402760:	0f b6 44 24 4e       	movzbl 0x4e(%rsp),%eax
  402765:	0f b6 54 24 4d       	movzbl 0x4d(%rsp),%edx
  40276a:	31 ed                	xor    %ebp,%ebp
  40276c:	4d 89 f0             	mov    %r14,%r8
  40276f:	83 f0 01             	xor    $0x1,%eax
  402772:	83 f2 01             	xor    $0x1,%edx
  402775:	88 44 24 4f          	mov    %al,0x4f(%rsp)
  402779:	88 94 24 94 00 00 00 	mov    %dl,0x94(%rsp)
  402780:	4c 39 dd             	cmp    %r11,%rbp
  402783:	0f 95 c0             	setne  %al
  402786:	49 83 fb ff          	cmp    $0xffffffffffffffff,%r11
  40278a:	0f 84 71 02 00 00    	je     402a01 <__ctype_b_loc@plt+0x1141>
  402790:	84 c0                	test   %al,%al
  402792:	0f 84 7a 02 00 00    	je     402a12 <__ctype_b_loc@plt+0x1152>
  402798:	4d 85 c0             	test   %r8,%r8
  40279b:	0f 95 c1             	setne  %cl
  40279e:	74 0b                	je     4027ab <__ctype_b_loc@plt+0xeeb>
  4027a0:	80 7c 24 4d 00       	cmpb   $0x0,0x4d(%rsp)
  4027a5:	0f 85 95 04 00 00    	jne    402c40 <__ctype_b_loc@plt+0x1380>
  4027ab:	4d 8d 74 2d 00       	lea    0x0(%r13,%rbp,1),%r14
  4027b0:	45 31 d2             	xor    %r10d,%r10d
  4027b3:	45 0f b6 26          	movzbl (%r14),%r12d
  4027b7:	41 80 fc 7e          	cmp    $0x7e,%r12b
  4027bb:	0f 86 e7 04 00 00    	jbe    402ca8 <__ctype_b_loc@plt+0x13e8>
  4027c1:	48 83 7c 24 78 01    	cmpq   $0x1,0x78(%rsp)
  4027c7:	0f 85 23 07 00 00    	jne    402ef0 <__ctype_b_loc@plt+0x1630>
  4027cd:	4c 89 44 24 28       	mov    %r8,0x28(%rsp)
  4027d2:	44 88 54 24 30       	mov    %r10b,0x30(%rsp)
  4027d7:	4c 89 5c 24 20       	mov    %r11,0x20(%rsp)
  4027dc:	e8 df f0 ff ff       	callq  4018c0 <__ctype_b_loc@plt>
  4027e1:	48 8b 00             	mov    (%rax),%rax
  4027e4:	41 0f b6 d4          	movzbl %r12b,%edx
  4027e8:	44 0f b6 54 24 30    	movzbl 0x30(%rsp),%r10d
  4027ee:	4c 8b 44 24 28       	mov    0x28(%rsp),%r8
  4027f3:	4c 8b 5c 24 20       	mov    0x20(%rsp),%r11
  4027f8:	48 c7 44 24 60 01 00 	movq   $0x1,0x60(%rsp)
  4027ff:	00 00 
  402801:	0f b7 14 50          	movzwl (%rax,%rdx,2),%edx
  402805:	66 c1 ea 0e          	shr    $0xe,%dx
  402809:	83 f2 01             	xor    $0x1,%edx
  40280c:	83 e2 01             	and    $0x1,%edx
  40280f:	84 d2                	test   %dl,%dl
  402811:	0f 84 69 01 00 00    	je     402980 <__ctype_b_loc@plt+0x10c0>
  402817:	80 7c 24 4d 00       	cmpb   $0x0,0x4d(%rsp)
  40281c:	0f 84 5e 01 00 00    	je     402980 <__ctype_b_loc@plt+0x10c0>
  402822:	ba 01 00 00 00       	mov    $0x1,%edx
  402827:	48 8b 44 24 60       	mov    0x60(%rsp),%rax
  40282c:	0f b6 7c 24 4e       	movzbl 0x4e(%rsp),%edi
  402831:	48 8b 4c 24 38       	mov    0x38(%rsp),%rcx
  402836:	48 01 e8             	add    %rbp,%rax
  402839:	49 89 c1             	mov    %rax,%r9
  40283c:	eb 75                	jmp    4028b3 <__ctype_b_loc@plt+0xff3>
  40283e:	66 90                	xchg   %ax,%ax
  402840:	40 84 ff             	test   %dil,%dil
  402843:	0f 85 af 04 00 00    	jne    402cf8 <__ctype_b_loc@plt+0x1438>
  402849:	4c 39 fb             	cmp    %r15,%rbx
  40284c:	73 04                	jae    402852 <__ctype_b_loc@plt+0xf92>
  40284e:	c6 04 19 5c          	movb   $0x5c,(%rcx,%rbx,1)
  402852:	48 8d 73 01          	lea    0x1(%rbx),%rsi
  402856:	49 39 f7             	cmp    %rsi,%r15
  402859:	76 10                	jbe    40286b <__ctype_b_loc@plt+0xfab>
  40285b:	44 89 e0             	mov    %r12d,%eax
  40285e:	c0 e8 06             	shr    $0x6,%al
  402861:	89 c6                	mov    %eax,%esi
  402863:	83 c6 30             	add    $0x30,%esi
  402866:	40 88 74 19 01       	mov    %sil,0x1(%rcx,%rbx,1)
  40286b:	48 8d 73 02          	lea    0x2(%rbx),%rsi
  40286f:	49 39 f7             	cmp    %rsi,%r15
  402872:	76 13                	jbe    402887 <__ctype_b_loc@plt+0xfc7>
  402874:	44 89 e0             	mov    %r12d,%eax
  402877:	c0 e8 03             	shr    $0x3,%al
  40287a:	89 c6                	mov    %eax,%esi
  40287c:	83 e6 07             	and    $0x7,%esi
  40287f:	83 c6 30             	add    $0x30,%esi
  402882:	40 88 74 19 02       	mov    %sil,0x2(%rcx,%rbx,1)
  402887:	41 83 e4 07          	and    $0x7,%r12d
  40288b:	48 83 c3 03          	add    $0x3,%rbx
  40288f:	41 83 c4 30          	add    $0x30,%r12d
  402893:	48 83 c5 01          	add    $0x1,%rbp
  402897:	49 39 e9             	cmp    %rbp,%r9
  40289a:	0f 86 3f 01 00 00    	jbe    4029df <__ctype_b_loc@plt+0x111f>
  4028a0:	4c 39 fb             	cmp    %r15,%rbx
  4028a3:	73 04                	jae    4028a9 <__ctype_b_loc@plt+0xfe9>
  4028a5:	44 88 24 19          	mov    %r12b,(%rcx,%rbx,1)
  4028a9:	45 0f b6 64 2d 00    	movzbl 0x0(%r13,%rbp,1),%r12d
  4028af:	48 83 c3 01          	add    $0x1,%rbx
  4028b3:	84 d2                	test   %dl,%dl
  4028b5:	75 89                	jne    402840 <__ctype_b_loc@plt+0xf80>
  4028b7:	45 84 d2             	test   %r10b,%r10b
  4028ba:	74 d7                	je     402893 <__ctype_b_loc@plt+0xfd3>
  4028bc:	4c 39 fb             	cmp    %r15,%rbx
  4028bf:	73 04                	jae    4028c5 <__ctype_b_loc@plt+0x1005>
  4028c1:	c6 04 19 5c          	movb   $0x5c,(%rcx,%rbx,1)
  4028c5:	48 83 c3 01          	add    $0x1,%rbx
  4028c9:	45 31 d2             	xor    %r10d,%r10d
  4028cc:	eb c5                	jmp    402893 <__ctype_b_loc@plt+0xfd3>
  4028ce:	66 90                	xchg   %ax,%ax
  4028d0:	83 7c 24 48 02       	cmpl   $0x2,0x48(%rsp)
  4028d5:	0f 84 0d 04 00 00    	je     402ce8 <__ctype_b_loc@plt+0x1428>
  4028db:	83 7c 24 48 03       	cmpl   $0x3,0x48(%rsp)
  4028e0:	0f 85 9a 00 00 00    	jne    402980 <__ctype_b_loc@plt+0x10c0>
  4028e6:	f6 84 24 90 00 00 00 	testb  $0x4,0x90(%rsp)
  4028ed:	04 
  4028ee:	0f 84 8c 00 00 00    	je     402980 <__ctype_b_loc@plt+0x10c0>
  4028f4:	48 8d 45 02          	lea    0x2(%rbp),%rax
  4028f8:	49 39 c3             	cmp    %rax,%r11
  4028fb:	0f 86 7f 00 00 00    	jbe    402980 <__ctype_b_loc@plt+0x10c0>
  402901:	41 80 7c 2d 01 3f    	cmpb   $0x3f,0x1(%r13,%rbp,1)
  402907:	75 77                	jne    402980 <__ctype_b_loc@plt+0x10c0>
  402909:	41 0f b6 54 05 00    	movzbl 0x0(%r13,%rax,1),%edx
  40290f:	80 fa 3e             	cmp    $0x3e,%dl
  402912:	77 6c                	ja     402980 <__ctype_b_loc@plt+0x10c0>
  402914:	48 b9 00 00 00 00 82 	movabs $0x7000a38200000000,%rcx
  40291b:	a3 00 70 
  40291e:	48 0f a3 d1          	bt     %rdx,%rcx
  402922:	73 5c                	jae    402980 <__ctype_b_loc@plt+0x10c0>
  402924:	80 7c 24 4e 00       	cmpb   $0x0,0x4e(%rsp)
  402929:	0f 85 c9 03 00 00    	jne    402cf8 <__ctype_b_loc@plt+0x1438>
  40292f:	4c 39 fb             	cmp    %r15,%rbx
  402932:	41 89 d4             	mov    %edx,%r12d
  402935:	73 09                	jae    402940 <__ctype_b_loc@plt+0x1080>
  402937:	48 8b 7c 24 38       	mov    0x38(%rsp),%rdi
  40293c:	c6 04 1f 3f          	movb   $0x3f,(%rdi,%rbx,1)
  402940:	48 8d 53 01          	lea    0x1(%rbx),%rdx
  402944:	49 39 d7             	cmp    %rdx,%r15
  402947:	76 0a                	jbe    402953 <__ctype_b_loc@plt+0x1093>
  402949:	48 8b 7c 24 38       	mov    0x38(%rsp),%rdi
  40294e:	c6 44 1f 01 22       	movb   $0x22,0x1(%rdi,%rbx,1)
  402953:	48 8d 53 02          	lea    0x2(%rbx),%rdx
  402957:	49 39 d7             	cmp    %rdx,%r15
  40295a:	76 0a                	jbe    402966 <__ctype_b_loc@plt+0x10a6>
  40295c:	48 8b 7c 24 38       	mov    0x38(%rsp),%rdi
  402961:	c6 44 1f 02 22       	movb   $0x22,0x2(%rdi,%rbx,1)
  402966:	48 8d 53 03          	lea    0x3(%rbx),%rdx
  40296a:	49 39 d7             	cmp    %rdx,%r15
  40296d:	76 0a                	jbe    402979 <__ctype_b_loc@plt+0x10b9>
  40296f:	48 8b 7c 24 38       	mov    0x38(%rsp),%rdi
  402974:	c6 44 1f 03 3f       	movb   $0x3f,0x3(%rdi,%rbx,1)
  402979:	48 83 c3 04          	add    $0x4,%rbx
  40297d:	48 89 c5             	mov    %rax,%rbp
  402980:	80 7c 24 4f 00       	cmpb   $0x0,0x4f(%rsp)
  402985:	74 0a                	je     402991 <__ctype_b_loc@plt+0x10d1>
  402987:	80 bc 24 94 00 00 00 	cmpb   $0x0,0x94(%rsp)
  40298e:	00 
  40298f:	75 28                	jne    4029b9 <__ctype_b_loc@plt+0x10f9>
  402991:	48 83 7c 24 50 00    	cmpq   $0x0,0x50(%rsp)
  402997:	74 20                	je     4029b9 <__ctype_b_loc@plt+0x10f9>
  402999:	44 89 e1             	mov    %r12d,%ecx
  40299c:	b8 01 00 00 00       	mov    $0x1,%eax
  4029a1:	44 89 e2             	mov    %r12d,%edx
  4029a4:	83 e1 1f             	and    $0x1f,%ecx
  4029a7:	c0 ea 05             	shr    $0x5,%dl
  4029aa:	d3 e0                	shl    %cl,%eax
  4029ac:	48 8b 4c 24 50       	mov    0x50(%rsp),%rcx
  4029b1:	0f b6 d2             	movzbl %dl,%edx
  4029b4:	85 04 91             	test   %eax,(%rcx,%rdx,4)
  4029b7:	75 05                	jne    4029be <__ctype_b_loc@plt+0x10fe>
  4029b9:	45 84 d2             	test   %r10b,%r10b
  4029bc:	74 1d                	je     4029db <__ctype_b_loc@plt+0x111b>
  4029be:	80 7c 24 4e 00       	cmpb   $0x0,0x4e(%rsp)
  4029c3:	0f 85 2f 03 00 00    	jne    402cf8 <__ctype_b_loc@plt+0x1438>
  4029c9:	4c 39 fb             	cmp    %r15,%rbx
  4029cc:	73 09                	jae    4029d7 <__ctype_b_loc@plt+0x1117>
  4029ce:	48 8b 7c 24 38       	mov    0x38(%rsp),%rdi
  4029d3:	c6 04 1f 5c          	movb   $0x5c,(%rdi,%rbx,1)
  4029d7:	48 83 c3 01          	add    $0x1,%rbx
  4029db:	48 83 c5 01          	add    $0x1,%rbp
  4029df:	4c 39 fb             	cmp    %r15,%rbx
  4029e2:	73 09                	jae    4029ed <__ctype_b_loc@plt+0x112d>
  4029e4:	48 8b 7c 24 38       	mov    0x38(%rsp),%rdi
  4029e9:	44 88 24 1f          	mov    %r12b,(%rdi,%rbx,1)
  4029ed:	48 83 c3 01          	add    $0x1,%rbx
  4029f1:	4c 39 dd             	cmp    %r11,%rbp
  4029f4:	0f 95 c0             	setne  %al
  4029f7:	49 83 fb ff          	cmp    $0xffffffffffffffff,%r11
  4029fb:	0f 85 8f fd ff ff    	jne    402790 <__ctype_b_loc@plt+0xed0>
  402a01:	41 80 7c 2d 00 00    	cmpb   $0x0,0x0(%r13,%rbp,1)
  402a07:	0f 95 c0             	setne  %al
  402a0a:	84 c0                	test   %al,%al
  402a0c:	0f 85 86 fd ff ff    	jne    402798 <__ctype_b_loc@plt+0xed8>
  402a12:	48 85 db             	test   %rbx,%rbx
  402a15:	75 12                	jne    402a29 <__ctype_b_loc@plt+0x1169>
  402a17:	83 7c 24 48 02       	cmpl   $0x2,0x48(%rsp)
  402a1c:	75 0b                	jne    402a29 <__ctype_b_loc@plt+0x1169>
  402a1e:	80 7c 24 4e 00       	cmpb   $0x0,0x4e(%rsp)
  402a23:	0f 85 cf 02 00 00    	jne    402cf8 <__ctype_b_loc@plt+0x1438>
  402a29:	80 7c 24 4e 00       	cmpb   $0x0,0x4e(%rsp)
  402a2e:	75 34                	jne    402a64 <__ctype_b_loc@plt+0x11a4>
  402a30:	48 83 7c 24 58 00    	cmpq   $0x0,0x58(%rsp)
  402a36:	74 2c                	je     402a64 <__ctype_b_loc@plt+0x11a4>
  402a38:	48 8b 54 24 58       	mov    0x58(%rsp),%rdx
  402a3d:	0f b6 02             	movzbl (%rdx),%eax
  402a40:	84 c0                	test   %al,%al
  402a42:	74 20                	je     402a64 <__ctype_b_loc@plt+0x11a4>
  402a44:	48 8b 4c 24 38       	mov    0x38(%rsp),%rcx
  402a49:	48 29 da             	sub    %rbx,%rdx
  402a4c:	0f 1f 40 00          	nopl   0x0(%rax)
  402a50:	49 39 df             	cmp    %rbx,%r15
  402a53:	76 03                	jbe    402a58 <__ctype_b_loc@plt+0x1198>
  402a55:	88 04 19             	mov    %al,(%rcx,%rbx,1)
  402a58:	48 83 c3 01          	add    $0x1,%rbx
  402a5c:	0f b6 04 1a          	movzbl (%rdx,%rbx,1),%eax
  402a60:	84 c0                	test   %al,%al
  402a62:	75 ec                	jne    402a50 <__ctype_b_loc@plt+0x1190>
  402a64:	4c 39 fb             	cmp    %r15,%rbx
  402a67:	0f 83 ce 02 00 00    	jae    402d3b <__ctype_b_loc@plt+0x147b>
  402a6d:	48 8b 7c 24 38       	mov    0x38(%rsp),%rdi
  402a72:	c6 04 1f 00          	movb   $0x0,(%rdi,%rbx,1)
  402a76:	e9 c0 02 00 00       	jmpq   402d3b <__ctype_b_loc@plt+0x147b>
  402a7b:	74 7c                	je     402af9 <__ctype_b_loc@plt+0x1239>
  402a7d:	31 ff                	xor    %edi,%edi
  402a7f:	ba 05 00 00 00       	mov    $0x5,%edx
  402a84:	be 5e 62 40 00       	mov    $0x40625e,%esi
  402a89:	4c 89 5c 24 20       	mov    %r11,0x20(%rsp)
  402a8e:	e8 3d eb ff ff       	callq  4015d0 <dcgettext@plt>
  402a93:	83 7c 24 48 07       	cmpl   $0x7,0x48(%rsp)
  402a98:	48 89 44 24 70       	mov    %rax,0x70(%rsp)
  402a9d:	4c 8b 5c 24 20       	mov    0x20(%rsp),%r11
  402aa2:	0f 94 c3             	sete   %bl
  402aa5:	48 3d 5e 62 40 00    	cmp    $0x40625e,%rax
  402aab:	75 12                	jne    402abf <__ctype_b_loc@plt+0x11ff>
  402aad:	84 db                	test   %bl,%bl
  402aaf:	b8 5c 62 40 00       	mov    $0x40625c,%eax
  402ab4:	48 0f 44 44 24 70    	cmove  0x70(%rsp),%rax
  402aba:	48 89 44 24 70       	mov    %rax,0x70(%rsp)
  402abf:	31 ff                	xor    %edi,%edi
  402ac1:	ba 05 00 00 00       	mov    $0x5,%edx
  402ac6:	be 66 6a 40 00       	mov    $0x406a66,%esi
  402acb:	4c 89 5c 24 20       	mov    %r11,0x20(%rsp)
  402ad0:	e8 fb ea ff ff       	callq  4015d0 <dcgettext@plt>
  402ad5:	48 3d 66 6a 40 00    	cmp    $0x406a66,%rax
  402adb:	48 89 44 24 68       	mov    %rax,0x68(%rsp)
  402ae0:	4c 8b 5c 24 20       	mov    0x20(%rsp),%r11
  402ae5:	75 12                	jne    402af9 <__ctype_b_loc@plt+0x1239>
  402ae7:	84 db                	test   %bl,%bl
  402ae9:	b8 5c 62 40 00       	mov    $0x40625c,%eax
  402aee:	48 0f 44 44 24 68    	cmove  0x68(%rsp),%rax
  402af4:	48 89 44 24 68       	mov    %rax,0x68(%rsp)
  402af9:	31 db                	xor    %ebx,%ebx
  402afb:	80 7c 24 4e 00       	cmpb   $0x0,0x4e(%rsp)
  402b00:	75 2a                	jne    402b2c <__ctype_b_loc@plt+0x126c>
  402b02:	48 8b 54 24 70       	mov    0x70(%rsp),%rdx
  402b07:	0f b6 02             	movzbl (%rdx),%eax
  402b0a:	84 c0                	test   %al,%al
  402b0c:	74 1e                	je     402b2c <__ctype_b_loc@plt+0x126c>
  402b0e:	48 8b 4c 24 38       	mov    0x38(%rsp),%rcx
  402b13:	0f 1f 44 00 00       	nopl   0x0(%rax,%rax,1)
  402b18:	49 39 df             	cmp    %rbx,%r15
  402b1b:	76 03                	jbe    402b20 <__ctype_b_loc@plt+0x1260>
  402b1d:	88 04 19             	mov    %al,(%rcx,%rbx,1)
  402b20:	48 83 c3 01          	add    $0x1,%rbx
  402b24:	0f b6 04 1a          	movzbl (%rdx,%rbx,1),%eax
  402b28:	84 c0                	test   %al,%al
  402b2a:	75 ec                	jne    402b18 <__ctype_b_loc@plt+0x1258>
  402b2c:	48 8b 7c 24 68       	mov    0x68(%rsp),%rdi
  402b31:	4c 89 5c 24 20       	mov    %r11,0x20(%rsp)
  402b36:	e8 b5 ea ff ff       	callq  4015f0 <strlen@plt>
  402b3b:	49 89 c6             	mov    %rax,%r14
  402b3e:	48 8b 44 24 68       	mov    0x68(%rsp),%rax
  402b43:	c6 44 24 4d 01       	movb   $0x1,0x4d(%rsp)
  402b48:	4c 8b 5c 24 20       	mov    0x20(%rsp),%r11
  402b4d:	48 89 44 24 58       	mov    %rax,0x58(%rsp)
  402b52:	e9 09 fc ff ff       	jmpq   402760 <__ctype_b_loc@plt+0xea0>
  402b57:	c6 44 24 4e 00       	movb   $0x0,0x4e(%rsp)
  402b5c:	c6 44 24 4d 00       	movb   $0x0,0x4d(%rsp)
  402b61:	45 31 f6             	xor    %r14d,%r14d
  402b64:	48 c7 44 24 58 00 00 	movq   $0x0,0x58(%rsp)
  402b6b:	00 00 
  402b6d:	31 db                	xor    %ebx,%ebx
  402b6f:	e9 ec fb ff ff       	jmpq   402760 <__ctype_b_loc@plt+0xea0>
  402b74:	c6 44 24 4e 01       	movb   $0x1,0x4e(%rsp)
  402b79:	c6 44 24 4d 00       	movb   $0x0,0x4d(%rsp)
  402b7e:	41 be 01 00 00 00    	mov    $0x1,%r14d
  402b84:	48 c7 44 24 58 66 6a 	movq   $0x406a66,0x58(%rsp)
  402b8b:	40 00 
  402b8d:	31 db                	xor    %ebx,%ebx
  402b8f:	c7 44 24 48 02 00 00 	movl   $0x2,0x48(%rsp)
  402b96:	00 
  402b97:	e9 c4 fb ff ff       	jmpq   402760 <__ctype_b_loc@plt+0xea0>
  402b9c:	80 7c 24 4e 00       	cmpb   $0x0,0x4e(%rsp)
  402ba1:	0f 85 3d 06 00 00    	jne    4031e4 <__ctype_b_loc@plt+0x1924>
  402ba7:	4d 85 ff             	test   %r15,%r15
  402baa:	0f 84 22 05 00 00    	je     4030d2 <__ctype_b_loc@plt+0x1812>
  402bb0:	48 8b 7c 24 38       	mov    0x38(%rsp),%rdi
  402bb5:	c6 44 24 4d 00       	movb   $0x0,0x4d(%rsp)
  402bba:	41 be 01 00 00 00    	mov    $0x1,%r14d
  402bc0:	48 c7 44 24 58 66 6a 	movq   $0x406a66,0x58(%rsp)
  402bc7:	40 00 
  402bc9:	bb 01 00 00 00       	mov    $0x1,%ebx
  402bce:	c6 07 27             	movb   $0x27,(%rdi)
  402bd1:	e9 8a fb ff ff       	jmpq   402760 <__ctype_b_loc@plt+0xea0>
  402bd6:	80 7c 24 4e 00       	cmpb   $0x0,0x4e(%rsp)
  402bdb:	0f 85 e8 05 00 00    	jne    4031c9 <__ctype_b_loc@plt+0x1909>
  402be1:	4d 85 ff             	test   %r15,%r15
  402be4:	0f 84 06 05 00 00    	je     4030f0 <__ctype_b_loc@plt+0x1830>
  402bea:	48 8b 7c 24 38       	mov    0x38(%rsp),%rdi
  402bef:	c6 44 24 4d 01       	movb   $0x1,0x4d(%rsp)
  402bf4:	41 be 01 00 00 00    	mov    $0x1,%r14d
  402bfa:	48 c7 44 24 58 5c 62 	movq   $0x40625c,0x58(%rsp)
  402c01:	40 00 
  402c03:	bb 01 00 00 00       	mov    $0x1,%ebx
  402c08:	c6 07 22             	movb   $0x22,(%rdi)
  402c0b:	e9 50 fb ff ff       	jmpq   402760 <__ctype_b_loc@plt+0xea0>
  402c10:	c6 44 24 4e 01       	movb   $0x1,0x4e(%rsp)
  402c15:	c6 44 24 4d 01       	movb   $0x1,0x4d(%rsp)
  402c1a:	41 be 01 00 00 00    	mov    $0x1,%r14d
  402c20:	48 c7 44 24 58 5c 62 	movq   $0x40625c,0x58(%rsp)
  402c27:	40 00 
  402c29:	31 db                	xor    %ebx,%ebx
  402c2b:	c7 44 24 48 03 00 00 	movl   $0x3,0x48(%rsp)
  402c32:	00 
  402c33:	e9 28 fb ff ff       	jmpq   402760 <__ctype_b_loc@plt+0xea0>
  402c38:	0f 1f 84 00 00 00 00 	nopl   0x0(%rax,%rax,1)
  402c3f:	00 
  402c40:	4a 8d 44 05 00       	lea    0x0(%rbp,%r8,1),%rax
  402c45:	4d 8d 74 2d 00       	lea    0x0(%r13,%rbp,1),%r14
  402c4a:	49 39 c3             	cmp    %rax,%r11
  402c4d:	0f 82 95 02 00 00    	jb     402ee8 <__ctype_b_loc@plt+0x1628>
  402c53:	48 8b 74 24 58       	mov    0x58(%rsp),%rsi
  402c58:	4c 89 c2             	mov    %r8,%rdx
  402c5b:	4c 89 f7             	mov    %r14,%rdi
  402c5e:	88 4c 24 30          	mov    %cl,0x30(%rsp)
  402c62:	4c 89 44 24 28       	mov    %r8,0x28(%rsp)
  402c67:	4c 89 5c 24 20       	mov    %r11,0x20(%rsp)
  402c6c:	e8 9f ea ff ff       	callq  401710 <memcmp@plt>
  402c71:	85 c0                	test   %eax,%eax
  402c73:	0f b6 4c 24 30       	movzbl 0x30(%rsp),%ecx
  402c78:	4c 8b 44 24 28       	mov    0x28(%rsp),%r8
  402c7d:	4c 8b 5c 24 20       	mov    0x20(%rsp),%r11
  402c82:	0f 85 60 02 00 00    	jne    402ee8 <__ctype_b_loc@plt+0x1628>
  402c88:	80 7c 24 4e 00       	cmpb   $0x0,0x4e(%rsp)
  402c8d:	75 69                	jne    402cf8 <__ctype_b_loc@plt+0x1438>
  402c8f:	45 0f b6 26          	movzbl (%r14),%r12d
  402c93:	41 ba 01 00 00 00    	mov    $0x1,%r10d
  402c99:	41 80 fc 7e          	cmp    $0x7e,%r12b
  402c9d:	0f 87 1e fb ff ff    	ja     4027c1 <__ctype_b_loc@plt+0xf01>
  402ca3:	0f 1f 44 00 00       	nopl   0x0(%rax,%rax,1)
  402ca8:	41 0f b6 c4          	movzbl %r12b,%eax
  402cac:	ff 24 c5 e8 62 40 00 	jmpq   *0x4062e8(,%rax,8)
  402cb3:	0f 1f 44 00 00       	nopl   0x0(%rax,%rax,1)
  402cb8:	49 83 fb 01          	cmp    $0x1,%r11
  402cbc:	0f 95 c0             	setne  %al
  402cbf:	49 83 fb ff          	cmp    $0xffffffffffffffff,%r11
  402cc3:	0f 84 d7 03 00 00    	je     4030a0 <__ctype_b_loc@plt+0x17e0>
  402cc9:	84 c0                	test   %al,%al
  402ccb:	0f 85 af fc ff ff    	jne    402980 <__ctype_b_loc@plt+0x10c0>
  402cd1:	48 85 ed             	test   %rbp,%rbp
  402cd4:	0f 85 a6 fc ff ff    	jne    402980 <__ctype_b_loc@plt+0x10c0>
  402cda:	83 7c 24 48 02       	cmpl   $0x2,0x48(%rsp)
  402cdf:	0f 85 9b fc ff ff    	jne    402980 <__ctype_b_loc@plt+0x10c0>
  402ce5:	0f 1f 00             	nopl   (%rax)
  402ce8:	80 7c 24 4e 00       	cmpb   $0x0,0x4e(%rsp)
  402ced:	0f 84 8d fc ff ff    	je     402980 <__ctype_b_loc@plt+0x10c0>
  402cf3:	0f 1f 44 00 00       	nopl   0x0(%rax,%rax,1)
  402cf8:	48 8b 44 24 68       	mov    0x68(%rsp),%rax
  402cfd:	44 8b 8c 24 90 00 00 	mov    0x90(%rsp),%r9d
  402d04:	00 
  402d05:	4c 89 d9             	mov    %r11,%rcx
  402d08:	44 8b 44 24 48       	mov    0x48(%rsp),%r8d
  402d0d:	48 8b 7c 24 38       	mov    0x38(%rsp),%rdi
  402d12:	4c 89 ea             	mov    %r13,%rdx
  402d15:	48 c7 04 24 00 00 00 	movq   $0x0,(%rsp)
  402d1c:	00 
  402d1d:	4c 89 fe             	mov    %r15,%rsi
  402d20:	48 89 44 24 10       	mov    %rax,0x10(%rsp)
  402d25:	48 8b 44 24 70       	mov    0x70(%rsp),%rax
  402d2a:	41 83 e1 fd          	and    $0xfffffffd,%r9d
  402d2e:	48 89 44 24 08       	mov    %rax,0x8(%rsp)
  402d33:	e8 68 f9 ff ff       	callq  4026a0 <__ctype_b_loc@plt+0xde0>
  402d38:	48 89 c3             	mov    %rax,%rbx
  402d3b:	48 8b 94 24 b8 00 00 	mov    0xb8(%rsp),%rdx
  402d42:	00 
  402d43:	64 48 33 14 25 28 00 	xor    %fs:0x28,%rdx
  402d4a:	00 00 
  402d4c:	48 89 d8             	mov    %rbx,%rax
  402d4f:	0f 85 6f 04 00 00    	jne    4031c4 <__ctype_b_loc@plt+0x1904>
  402d55:	48 81 c4 c8 00 00 00 	add    $0xc8,%rsp
  402d5c:	5b                   	pop    %rbx
  402d5d:	5d                   	pop    %rbp
  402d5e:	41 5c                	pop    %r12
  402d60:	41 5d                	pop    %r13
  402d62:	41 5e                	pop    %r14
  402d64:	41 5f                	pop    %r15
  402d66:	c3                   	retq   
  402d67:	66 0f 1f 84 00 00 00 	nopw   0x0(%rax,%rax,1)
  402d6e:	00 00 
  402d70:	b8 72 00 00 00       	mov    $0x72,%eax
  402d75:	83 7c 24 48 02       	cmpl   $0x2,0x48(%rsp)
  402d7a:	0f 84 8e 03 00 00    	je     40310e <__ctype_b_loc@plt+0x184e>
  402d80:	80 7c 24 4d 00       	cmpb   $0x0,0x4d(%rsp)
  402d85:	0f 84 f5 fb ff ff    	je     402980 <__ctype_b_loc@plt+0x10c0>
  402d8b:	41 89 c4             	mov    %eax,%r12d
  402d8e:	e9 2b fc ff ff       	jmpq   4029be <__ctype_b_loc@plt+0x10fe>
  402d93:	0f 1f 44 00 00       	nopl   0x0(%rax,%rax,1)
  402d98:	b8 66 00 00 00       	mov    $0x66,%eax
  402d9d:	eb e1                	jmp    402d80 <__ctype_b_loc@plt+0x14c0>
  402d9f:	90                   	nop
  402da0:	b8 76 00 00 00       	mov    $0x76,%eax
  402da5:	eb d9                	jmp    402d80 <__ctype_b_loc@plt+0x14c0>
  402da7:	66 0f 1f 84 00 00 00 	nopw   0x0(%rax,%rax,1)
  402dae:	00 00 
  402db0:	b8 6e 00 00 00       	mov    $0x6e,%eax
  402db5:	eb be                	jmp    402d75 <__ctype_b_loc@plt+0x14b5>
  402db7:	66 0f 1f 84 00 00 00 	nopw   0x0(%rax,%rax,1)
  402dbe:	00 00 
  402dc0:	b8 74 00 00 00       	mov    $0x74,%eax
  402dc5:	eb ae                	jmp    402d75 <__ctype_b_loc@plt+0x14b5>
  402dc7:	66 0f 1f 84 00 00 00 	nopw   0x0(%rax,%rax,1)
  402dce:	00 00 
  402dd0:	b8 62 00 00 00       	mov    $0x62,%eax
  402dd5:	eb a9                	jmp    402d80 <__ctype_b_loc@plt+0x14c0>
  402dd7:	66 0f 1f 84 00 00 00 	nopw   0x0(%rax,%rax,1)
  402dde:	00 00 
  402de0:	b8 61 00 00 00       	mov    $0x61,%eax
  402de5:	eb 99                	jmp    402d80 <__ctype_b_loc@plt+0x14c0>
  402de7:	66 0f 1f 84 00 00 00 	nopw   0x0(%rax,%rax,1)
  402dee:	00 00 
  402df0:	80 7c 24 4d 00       	cmpb   $0x0,0x4d(%rsp)
  402df5:	0f 84 85 02 00 00    	je     403080 <__ctype_b_loc@plt+0x17c0>
  402dfb:	80 7c 24 4e 00       	cmpb   $0x0,0x4e(%rsp)
  402e00:	0f 85 f2 fe ff ff    	jne    402cf8 <__ctype_b_loc@plt+0x1438>
  402e06:	4c 39 fb             	cmp    %r15,%rbx
  402e09:	73 09                	jae    402e14 <__ctype_b_loc@plt+0x1554>
  402e0b:	48 8b 7c 24 38       	mov    0x38(%rsp),%rdi
  402e10:	c6 04 1f 5c          	movb   $0x5c,(%rdi,%rbx,1)
  402e14:	48 8d 55 01          	lea    0x1(%rbp),%rdx
  402e18:	48 8d 43 01          	lea    0x1(%rbx),%rax
  402e1c:	49 39 d3             	cmp    %rdx,%r11
  402e1f:	76 3f                	jbe    402e60 <__ctype_b_loc@plt+0x15a0>
  402e21:	41 0f b6 54 2d 01    	movzbl 0x1(%r13,%rbp,1),%edx
  402e27:	80 fa 2f             	cmp    $0x2f,%dl
  402e2a:	7e 34                	jle    402e60 <__ctype_b_loc@plt+0x15a0>
  402e2c:	80 fa 39             	cmp    $0x39,%dl
  402e2f:	7f 2f                	jg     402e60 <__ctype_b_loc@plt+0x15a0>
  402e31:	49 39 c7             	cmp    %rax,%r15
  402e34:	76 09                	jbe    402e3f <__ctype_b_loc@plt+0x157f>
  402e36:	48 8b 7c 24 38       	mov    0x38(%rsp),%rdi
  402e3b:	c6 04 07 30          	movb   $0x30,(%rdi,%rax,1)
  402e3f:	48 8d 43 02          	lea    0x2(%rbx),%rax
  402e43:	49 39 c7             	cmp    %rax,%r15
  402e46:	76 0a                	jbe    402e52 <__ctype_b_loc@plt+0x1592>
  402e48:	48 8b 7c 24 38       	mov    0x38(%rsp),%rdi
  402e4d:	c6 44 1f 02 30       	movb   $0x30,0x2(%rdi,%rbx,1)
  402e52:	48 8d 43 03          	lea    0x3(%rbx),%rax
  402e56:	66 2e 0f 1f 84 00 00 	nopw   %cs:0x0(%rax,%rax,1)
  402e5d:	00 00 00 
  402e60:	48 89 c3             	mov    %rax,%rbx
  402e63:	41 bc 30 00 00 00    	mov    $0x30,%r12d
  402e69:	e9 23 fb ff ff       	jmpq   402991 <__ctype_b_loc@plt+0x10d1>
  402e6e:	66 90                	xchg   %ax,%ax
  402e70:	80 7c 24 4e 00       	cmpb   $0x0,0x4e(%rsp)
  402e75:	74 0f                	je     402e86 <__ctype_b_loc@plt+0x15c6>
  402e77:	80 7c 24 4d 00       	cmpb   $0x0,0x4d(%rsp)
  402e7c:	74 08                	je     402e86 <__ctype_b_loc@plt+0x15c6>
  402e7e:	84 c9                	test   %cl,%cl
  402e80:	0f 85 55 fb ff ff    	jne    4029db <__ctype_b_loc@plt+0x111b>
  402e86:	b8 5c 00 00 00       	mov    $0x5c,%eax
  402e8b:	e9 e5 fe ff ff       	jmpq   402d75 <__ctype_b_loc@plt+0x14b5>
  402e90:	83 7c 24 48 02       	cmpl   $0x2,0x48(%rsp)
  402e95:	0f 85 e5 fa ff ff    	jne    402980 <__ctype_b_loc@plt+0x10c0>
  402e9b:	80 7c 24 4e 00       	cmpb   $0x0,0x4e(%rsp)
  402ea0:	0f 85 52 fe ff ff    	jne    402cf8 <__ctype_b_loc@plt+0x1438>
  402ea6:	4c 39 fb             	cmp    %r15,%rbx
  402ea9:	73 09                	jae    402eb4 <__ctype_b_loc@plt+0x15f4>
  402eab:	48 8b 7c 24 38       	mov    0x38(%rsp),%rdi
  402eb0:	c6 04 1f 27          	movb   $0x27,(%rdi,%rbx,1)
  402eb4:	48 8d 43 01          	lea    0x1(%rbx),%rax
  402eb8:	49 39 c7             	cmp    %rax,%r15
  402ebb:	76 0a                	jbe    402ec7 <__ctype_b_loc@plt+0x1607>
  402ebd:	48 8b 7c 24 38       	mov    0x38(%rsp),%rdi
  402ec2:	c6 44 1f 01 5c       	movb   $0x5c,0x1(%rdi,%rbx,1)
  402ec7:	48 8d 43 02          	lea    0x2(%rbx),%rax
  402ecb:	49 39 c7             	cmp    %rax,%r15
  402ece:	76 0a                	jbe    402eda <__ctype_b_loc@plt+0x161a>
  402ed0:	48 8b 7c 24 38       	mov    0x38(%rsp),%rdi
  402ed5:	c6 44 1f 02 27       	movb   $0x27,0x2(%rdi,%rbx,1)
  402eda:	48 83 c3 03          	add    $0x3,%rbx
  402ede:	e9 9d fa ff ff       	jmpq   402980 <__ctype_b_loc@plt+0x10c0>
  402ee3:	0f 1f 44 00 00       	nopl   0x0(%rax,%rax,1)
  402ee8:	45 31 d2             	xor    %r10d,%r10d
  402eeb:	e9 c3 f8 ff ff       	jmpq   4027b3 <__ctype_b_loc@plt+0xef3>
  402ef0:	49 83 fb ff          	cmp    $0xffffffffffffffff,%r11
  402ef4:	48 c7 84 24 b0 00 00 	movq   $0x0,0xb0(%rsp)
  402efb:	00 00 00 00 00 
  402f00:	0f 84 a7 01 00 00    	je     4030ad <__ctype_b_loc@plt+0x17ed>
  402f06:	44 88 a4 24 96 00 00 	mov    %r12b,0x96(%rsp)
  402f0d:	00 
  402f0e:	c6 84 24 95 00 00 00 	movb   $0x1,0x95(%rsp)
  402f15:	01 
  402f16:	4d 89 dc             	mov    %r11,%r12
  402f19:	48 c7 44 24 60 00 00 	movq   $0x0,0x60(%rsp)
  402f20:	00 00 
  402f22:	48 89 9c 24 80 00 00 	mov    %rbx,0x80(%rsp)
  402f29:	00 
  402f2a:	4c 89 84 24 88 00 00 	mov    %r8,0x88(%rsp)
  402f31:	00 
  402f32:	44 88 94 24 97 00 00 	mov    %r10b,0x97(%rsp)
  402f39:	00 
  402f3a:	4c 89 b4 24 98 00 00 	mov    %r14,0x98(%rsp)
  402f41:	00 
  402f42:	48 8b 5c 24 60       	mov    0x60(%rsp),%rbx
  402f47:	4c 89 e2             	mov    %r12,%rdx
  402f4a:	48 8d 8c 24 b0 00 00 	lea    0xb0(%rsp),%rcx
  402f51:	00 
  402f52:	48 8d bc 24 ac 00 00 	lea    0xac(%rsp),%rdi
  402f59:	00 
  402f5a:	48 01 eb             	add    %rbp,%rbx
  402f5d:	4d 8d 74 1d 00       	lea    0x0(%r13,%rbx,1),%r14
  402f62:	48 29 da             	sub    %rbx,%rdx
  402f65:	4c 89 f6             	mov    %r14,%rsi
  402f68:	e8 d3 e6 ff ff       	callq  401640 <mbrtowc@plt>
  402f6d:	48 85 c0             	test   %rax,%rax
  402f70:	48 89 c6             	mov    %rax,%rsi
  402f73:	0f 84 b9 00 00 00    	je     403032 <__ctype_b_loc@plt+0x1772>
  402f79:	48 83 f8 ff          	cmp    $0xffffffffffffffff,%rax
  402f7d:	0f 84 9d 01 00 00    	je     403120 <__ctype_b_loc@plt+0x1860>
  402f83:	48 83 f8 fe          	cmp    $0xfffffffffffffffe,%rax
  402f87:	0f 84 c2 01 00 00    	je     40314f <__ctype_b_loc@plt+0x188f>
  402f8d:	83 7c 24 48 02       	cmpl   $0x2,0x48(%rsp)
  402f92:	75 55                	jne    402fe9 <__ctype_b_loc@plt+0x1729>
  402f94:	80 7c 24 4e 00       	cmpb   $0x0,0x4e(%rsp)
  402f99:	74 4e                	je     402fe9 <__ctype_b_loc@plt+0x1729>
  402f9b:	48 83 f8 01          	cmp    $0x1,%rax
  402f9f:	76 48                	jbe    402fe9 <__ctype_b_loc@plt+0x1729>
  402fa1:	ba 01 00 00 00       	mov    $0x1,%edx
  402fa6:	b8 01 00 00 00       	mov    $0x1,%eax
  402fab:	0f 1f 44 00 00       	nopl   0x0(%rax,%rax,1)
  402fb0:	41 0f b6 0c 16       	movzbl (%r14,%rdx,1),%ecx
  402fb5:	83 e9 5b             	sub    $0x5b,%ecx
  402fb8:	80 f9 21             	cmp    $0x21,%cl
  402fbb:	77 23                	ja     402fe0 <__ctype_b_loc@plt+0x1720>
  402fbd:	48 89 c7             	mov    %rax,%rdi
  402fc0:	48 d3 e7             	shl    %cl,%rdi
  402fc3:	48 89 f9             	mov    %rdi,%rcx
  402fc6:	48 bf 2b 00 00 00 02 	movabs $0x20000002b,%rdi
  402fcd:	00 00 00 
  402fd0:	48 85 f9             	test   %rdi,%rcx
  402fd3:	74 0b                	je     402fe0 <__ctype_b_loc@plt+0x1720>
  402fd5:	4d 89 e3             	mov    %r12,%r11
  402fd8:	e9 1b fd ff ff       	jmpq   402cf8 <__ctype_b_loc@plt+0x1438>
  402fdd:	0f 1f 00             	nopl   (%rax)
  402fe0:	48 83 c2 01          	add    $0x1,%rdx
  402fe4:	48 39 f2             	cmp    %rsi,%rdx
  402fe7:	75 c7                	jne    402fb0 <__ctype_b_loc@plt+0x16f0>
  402fe9:	8b bc 24 ac 00 00 00 	mov    0xac(%rsp),%edi
  402ff0:	48 89 74 24 30       	mov    %rsi,0x30(%rsp)
  402ff5:	e8 a6 e8 ff ff       	callq  4018a0 <iswprint@plt>
  402ffa:	0f b6 94 24 95 00 00 	movzbl 0x95(%rsp),%edx
  403001:	00 
  403002:	85 c0                	test   %eax,%eax
  403004:	48 8d bc 24 b0 00 00 	lea    0xb0(%rsp),%rdi
  40300b:	00 
  40300c:	b8 00 00 00 00       	mov    $0x0,%eax
  403011:	48 8b 74 24 30       	mov    0x30(%rsp),%rsi
  403016:	0f 44 d0             	cmove  %eax,%edx
  403019:	48 01 74 24 60       	add    %rsi,0x60(%rsp)
  40301e:	88 94 24 95 00 00 00 	mov    %dl,0x95(%rsp)
  403025:	e8 66 e8 ff ff       	callq  401890 <mbsinit@plt>
  40302a:	85 c0                	test   %eax,%eax
  40302c:	0f 84 10 ff ff ff    	je     402f42 <__ctype_b_loc@plt+0x1682>
  403032:	0f b6 94 24 95 00 00 	movzbl 0x95(%rsp),%edx
  403039:	00 
  40303a:	4d 89 e3             	mov    %r12,%r11
  40303d:	44 0f b6 94 24 97 00 	movzbl 0x97(%rsp),%r10d
  403044:	00 00 
  403046:	44 0f b6 a4 24 96 00 	movzbl 0x96(%rsp),%r12d
  40304d:	00 00 
  40304f:	48 8b 9c 24 80 00 00 	mov    0x80(%rsp),%rbx
  403056:	00 
  403057:	4c 8b 84 24 88 00 00 	mov    0x88(%rsp),%r8
  40305e:	00 
  40305f:	83 f2 01             	xor    $0x1,%edx
  403062:	48 83 7c 24 60 01    	cmpq   $0x1,0x60(%rsp)
  403068:	0f 86 a1 f7 ff ff    	jbe    40280f <__ctype_b_loc@plt+0xf4f>
  40306e:	22 54 24 4d          	and    0x4d(%rsp),%dl
  403072:	e9 b0 f7 ff ff       	jmpq   402827 <__ctype_b_loc@plt+0xf67>
  403077:	66 0f 1f 84 00 00 00 	nopw   0x0(%rax,%rax,1)
  40307e:	00 00 
  403080:	f6 84 24 90 00 00 00 	testb  $0x1,0x90(%rsp)
  403087:	01 
  403088:	0f 84 f2 f8 ff ff    	je     402980 <__ctype_b_loc@plt+0x10c0>
  40308e:	48 83 c5 01          	add    $0x1,%rbp
  403092:	e9 e9 f6 ff ff       	jmpq   402780 <__ctype_b_loc@plt+0xec0>
  403097:	66 0f 1f 84 00 00 00 	nopw   0x0(%rax,%rax,1)
  40309e:	00 00 
  4030a0:	41 80 7d 01 00       	cmpb   $0x0,0x1(%r13)
  4030a5:	0f 95 c0             	setne  %al
  4030a8:	e9 1c fc ff ff       	jmpq   402cc9 <__ctype_b_loc@plt+0x1409>
  4030ad:	4c 89 ef             	mov    %r13,%rdi
  4030b0:	4c 89 44 24 28       	mov    %r8,0x28(%rsp)
  4030b5:	44 88 54 24 30       	mov    %r10b,0x30(%rsp)
  4030ba:	e8 31 e5 ff ff       	callq  4015f0 <strlen@plt>
  4030bf:	44 0f b6 54 24 30    	movzbl 0x30(%rsp),%r10d
  4030c5:	49 89 c3             	mov    %rax,%r11
  4030c8:	4c 8b 44 24 28       	mov    0x28(%rsp),%r8
  4030cd:	e9 34 fe ff ff       	jmpq   402f06 <__ctype_b_loc@plt+0x1646>
  4030d2:	c6 44 24 4d 00       	movb   $0x0,0x4d(%rsp)
  4030d7:	41 be 01 00 00 00    	mov    $0x1,%r14d
  4030dd:	48 c7 44 24 58 66 6a 	movq   $0x406a66,0x58(%rsp)
  4030e4:	40 00 
  4030e6:	bb 01 00 00 00       	mov    $0x1,%ebx
  4030eb:	e9 70 f6 ff ff       	jmpq   402760 <__ctype_b_loc@plt+0xea0>
  4030f0:	c6 44 24 4d 01       	movb   $0x1,0x4d(%rsp)
  4030f5:	41 be 01 00 00 00    	mov    $0x1,%r14d
  4030fb:	48 c7 44 24 58 5c 62 	movq   $0x40625c,0x58(%rsp)
  403102:	40 00 
  403104:	bb 01 00 00 00       	mov    $0x1,%ebx
  403109:	e9 52 f6 ff ff       	jmpq   402760 <__ctype_b_loc@plt+0xea0>
  40310e:	80 7c 24 4e 00       	cmpb   $0x0,0x4e(%rsp)
  403113:	0f 84 67 fc ff ff    	je     402d80 <__ctype_b_loc@plt+0x14c0>
  403119:	e9 da fb ff ff       	jmpq   402cf8 <__ctype_b_loc@plt+0x1438>
  40311e:	66 90                	xchg   %ax,%ax
  403120:	4d 89 e3             	mov    %r12,%r11
  403123:	48 8b 9c 24 80 00 00 	mov    0x80(%rsp),%rbx
  40312a:	00 
  40312b:	4c 8b 84 24 88 00 00 	mov    0x88(%rsp),%r8
  403132:	00 
  403133:	44 0f b6 94 24 97 00 	movzbl 0x97(%rsp),%r10d
  40313a:	00 00 
  40313c:	44 0f b6 a4 24 96 00 	movzbl 0x96(%rsp),%r12d
  403143:	00 00 
  403145:	ba 01 00 00 00       	mov    $0x1,%edx
  40314a:	e9 13 ff ff ff       	jmpq   403062 <__ctype_b_loc@plt+0x17a2>
  40314f:	48 89 5c 24 40       	mov    %rbx,0x40(%rsp)
  403154:	4d 89 e3             	mov    %r12,%r11
  403157:	4c 3b 5c 24 40       	cmp    0x40(%rsp),%r11
  40315c:	4d 89 f1             	mov    %r14,%r9
  40315f:	4c 8b 84 24 88 00 00 	mov    0x88(%rsp),%r8
  403166:	00 
  403167:	44 0f b6 94 24 97 00 	movzbl 0x97(%rsp),%r10d
  40316e:	00 00 
  403170:	48 8b 9c 24 80 00 00 	mov    0x80(%rsp),%rbx
  403177:	00 
  403178:	44 0f b6 a4 24 96 00 	movzbl 0x96(%rsp),%r12d
  40317f:	00 00 
  403181:	4c 8b b4 24 98 00 00 	mov    0x98(%rsp),%r14
  403188:	00 
  403189:	76 2f                	jbe    4031ba <__ctype_b_loc@plt+0x18fa>
  40318b:	41 80 39 00          	cmpb   $0x0,(%r9)
  40318f:	74 29                	je     4031ba <__ctype_b_loc@plt+0x18fa>
  403191:	48 8b 44 24 60       	mov    0x60(%rsp),%rax
  403196:	eb 0f                	jmp    4031a7 <__ctype_b_loc@plt+0x18e7>
  403198:	0f 1f 84 00 00 00 00 	nopl   0x0(%rax,%rax,1)
  40319f:	00 
  4031a0:	41 80 3c 06 00       	cmpb   $0x0,(%r14,%rax,1)
  4031a5:	74 0e                	je     4031b5 <__ctype_b_loc@plt+0x18f5>
  4031a7:	48 83 c0 01          	add    $0x1,%rax
  4031ab:	48 8d 54 05 00       	lea    0x0(%rbp,%rax,1),%rdx
  4031b0:	4c 39 da             	cmp    %r11,%rdx
  4031b3:	72 eb                	jb     4031a0 <__ctype_b_loc@plt+0x18e0>
  4031b5:	48 89 44 24 60       	mov    %rax,0x60(%rsp)
  4031ba:	ba 01 00 00 00       	mov    $0x1,%edx
  4031bf:	e9 9e fe ff ff       	jmpq   403062 <__ctype_b_loc@plt+0x17a2>
  4031c4:	e8 67 e4 ff ff       	callq  401630 <__stack_chk_fail@plt>
  4031c9:	c6 44 24 4d 01       	movb   $0x1,0x4d(%rsp)
  4031ce:	41 be 01 00 00 00    	mov    $0x1,%r14d
  4031d4:	48 c7 44 24 58 5c 62 	movq   $0x40625c,0x58(%rsp)
  4031db:	40 00 
  4031dd:	31 db                	xor    %ebx,%ebx
  4031df:	e9 7c f5 ff ff       	jmpq   402760 <__ctype_b_loc@plt+0xea0>
  4031e4:	c6 44 24 4d 00       	movb   $0x0,0x4d(%rsp)
  4031e9:	41 be 01 00 00 00    	mov    $0x1,%r14d
  4031ef:	48 c7 44 24 58 66 6a 	movq   $0x406a66,0x58(%rsp)
  4031f6:	40 00 
  4031f8:	31 db                	xor    %ebx,%ebx
  4031fa:	e9 61 f5 ff ff       	jmpq   402760 <__ctype_b_loc@plt+0xea0>
  4031ff:	90                   	nop
  403200:	48 89 5c 24 d0       	mov    %rbx,-0x30(%rsp)
  403205:	4c 89 64 24 e0       	mov    %r12,-0x20(%rsp)
  40320a:	48 89 cb             	mov    %rcx,%rbx
  40320d:	4c 89 6c 24 e8       	mov    %r13,-0x18(%rsp)
  403212:	4c 89 7c 24 f8       	mov    %r15,-0x8(%rsp)
  403217:	4c 63 e7             	movslq %edi,%r12
  40321a:	48 89 6c 24 d8       	mov    %rbp,-0x28(%rsp)
  40321f:	4c 89 74 24 f0       	mov    %r14,-0x10(%rsp)
  403224:	48 83 ec 78          	sub    $0x78,%rsp
  403228:	48 89 74 24 28       	mov    %rsi,0x28(%rsp)
  40322d:	48 89 54 24 30       	mov    %rdx,0x30(%rsp)
  403232:	e8 09 e3 ff ff       	callq  401540 <__errno_location@plt>
  403237:	49 89 c5             	mov    %rax,%r13
  40323a:	8b 00                	mov    (%rax),%eax
  40323c:	45 85 e4             	test   %r12d,%r12d
  40323f:	4c 8b 3d ba 4f 20 00 	mov    0x204fba(%rip),%r15        # 608200 <__ctype_b_loc@plt+0x206940>
  403246:	89 44 24 3c          	mov    %eax,0x3c(%rsp)
  40324a:	0f 88 7f 01 00 00    	js     4033cf <__ctype_b_loc@plt+0x1b0f>
  403250:	44 3b 25 b1 4f 20 00 	cmp    0x204fb1(%rip),%r12d        # 608208 <__ctype_b_loc@plt+0x206948>
  403257:	72 66                	jb     4032bf <__ctype_b_loc@plt+0x19ff>
  403259:	41 8d 6c 24 01       	lea    0x1(%r12),%ebp
  40325e:	41 89 ee             	mov    %ebp,%r14d
  403261:	4c 89 f6             	mov    %r14,%rsi
  403264:	48 c1 e6 04          	shl    $0x4,%rsi
  403268:	49 81 ff 10 82 60 00 	cmp    $0x608210,%r15
  40326f:	0f 85 43 01 00 00    	jne    4033b8 <__ctype_b_loc@plt+0x1af8>
  403275:	31 ff                	xor    %edi,%edi
  403277:	e8 44 0e 00 00       	callq  4040c0 <__ctype_b_loc@plt+0x2800>
  40327c:	49 89 c7             	mov    %rax,%r15
  40327f:	48 89 05 7a 4f 20 00 	mov    %rax,0x204f7a(%rip)        # 608200 <__ctype_b_loc@plt+0x206940>
  403286:	48 8b 05 83 4f 20 00 	mov    0x204f83(%rip),%rax        # 608210 <__ctype_b_loc@plt+0x206950>
  40328d:	49 89 07             	mov    %rax,(%r15)
  403290:	48 8b 05 81 4f 20 00 	mov    0x204f81(%rip),%rax        # 608218 <__ctype_b_loc@plt+0x206958>
  403297:	49 89 47 08          	mov    %rax,0x8(%r15)
  40329b:	8b 3d 67 4f 20 00    	mov    0x204f67(%rip),%edi        # 608208 <__ctype_b_loc@plt+0x206948>
  4032a1:	4c 89 f2             	mov    %r14,%rdx
  4032a4:	31 f6                	xor    %esi,%esi
  4032a6:	48 29 fa             	sub    %rdi,%rdx
  4032a9:	48 c1 e7 04          	shl    $0x4,%rdi
  4032ad:	48 c1 e2 04          	shl    $0x4,%rdx
  4032b1:	4c 01 ff             	add    %r15,%rdi
  4032b4:	e8 d7 e3 ff ff       	callq  401690 <memset@plt>
  4032b9:	89 2d 49 4f 20 00    	mov    %ebp,0x204f49(%rip)        # 608208 <__ctype_b_loc@plt+0x206948>
  4032bf:	48 8b 43 30          	mov    0x30(%rbx),%rax
  4032c3:	49 c1 e4 04          	shl    $0x4,%r12
  4032c7:	8b 6b 04             	mov    0x4(%rbx),%ebp
  4032ca:	4d 01 fc             	add    %r15,%r12
  4032cd:	44 8b 03             	mov    (%rbx),%r8d
  4032d0:	4c 8d 7b 08          	lea    0x8(%rbx),%r15
  4032d4:	4d 8b 1c 24          	mov    (%r12),%r11
  4032d8:	4d 8b 74 24 08       	mov    0x8(%r12),%r14
  4032dd:	48 89 44 24 10       	mov    %rax,0x10(%rsp)
  4032e2:	48 8b 43 28          	mov    0x28(%rbx),%rax
  4032e6:	83 cd 01             	or     $0x1,%ebp
  4032e9:	48 8b 4c 24 30       	mov    0x30(%rsp),%rcx
  4032ee:	48 8b 54 24 28       	mov    0x28(%rsp),%rdx
  4032f3:	41 89 e9             	mov    %ebp,%r9d
  4032f6:	4c 89 de             	mov    %r11,%rsi
  4032f9:	4c 89 3c 24          	mov    %r15,(%rsp)
  4032fd:	4c 89 f7             	mov    %r14,%rdi
  403300:	48 89 44 24 08       	mov    %rax,0x8(%rsp)
  403305:	4c 89 5c 24 20       	mov    %r11,0x20(%rsp)
  40330a:	e8 91 f3 ff ff       	callq  4026a0 <__ctype_b_loc@plt+0xde0>
  40330f:	4c 8b 5c 24 20       	mov    0x20(%rsp),%r11
  403314:	49 39 c3             	cmp    %rax,%r11
  403317:	77 6b                	ja     403384 <__ctype_b_loc@plt+0x1ac4>
  403319:	48 8d 70 01          	lea    0x1(%rax),%rsi
  40331d:	49 81 fe e0 82 60 00 	cmp    $0x6082e0,%r14
  403324:	49 89 34 24          	mov    %rsi,(%r12)
  403328:	74 12                	je     40333c <__ctype_b_loc@plt+0x1a7c>
  40332a:	4c 89 f7             	mov    %r14,%rdi
  40332d:	48 89 74 24 20       	mov    %rsi,0x20(%rsp)
  403332:	e8 e9 e1 ff ff       	callq  401520 <free@plt>
  403337:	48 8b 74 24 20       	mov    0x20(%rsp),%rsi
  40333c:	48 89 f7             	mov    %rsi,%rdi
  40333f:	48 89 74 24 20       	mov    %rsi,0x20(%rsp)
  403344:	e8 57 0d 00 00       	callq  4040a0 <__ctype_b_loc@plt+0x27e0>
  403349:	49 89 44 24 08       	mov    %rax,0x8(%r12)
  40334e:	49 89 c6             	mov    %rax,%r14
  403351:	48 8b 43 30          	mov    0x30(%rbx),%rax
  403355:	44 8b 03             	mov    (%rbx),%r8d
  403358:	48 8b 4c 24 30       	mov    0x30(%rsp),%rcx
  40335d:	41 89 e9             	mov    %ebp,%r9d
  403360:	48 8b 54 24 28       	mov    0x28(%rsp),%rdx
  403365:	48 8b 74 24 20       	mov    0x20(%rsp),%rsi
  40336a:	4c 89 f7             	mov    %r14,%rdi
  40336d:	48 89 44 24 10       	mov    %rax,0x10(%rsp)
  403372:	48 8b 43 28          	mov    0x28(%rbx),%rax
  403376:	4c 89 3c 24          	mov    %r15,(%rsp)
  40337a:	48 89 44 24 08       	mov    %rax,0x8(%rsp)
  40337f:	e8 1c f3 ff ff       	callq  4026a0 <__ctype_b_loc@plt+0xde0>
  403384:	8b 44 24 3c          	mov    0x3c(%rsp),%eax
  403388:	48 8b 5c 24 48       	mov    0x48(%rsp),%rbx
  40338d:	48 8b 6c 24 50       	mov    0x50(%rsp),%rbp
  403392:	4c 8b 64 24 58       	mov    0x58(%rsp),%r12
  403397:	4c 8b 7c 24 70       	mov    0x70(%rsp),%r15
  40339c:	41 89 45 00          	mov    %eax,0x0(%r13)
  4033a0:	4c 89 f0             	mov    %r14,%rax
  4033a3:	4c 8b 6c 24 60       	mov    0x60(%rsp),%r13
  4033a8:	4c 8b 74 24 68       	mov    0x68(%rsp),%r14
  4033ad:	48 83 c4 78          	add    $0x78,%rsp
  4033b1:	c3                   	retq   
  4033b2:	66 0f 1f 44 00 00    	nopw   0x0(%rax,%rax,1)
  4033b8:	4c 89 ff             	mov    %r15,%rdi
  4033bb:	e8 00 0d 00 00       	callq  4040c0 <__ctype_b_loc@plt+0x2800>
  4033c0:	49 89 c7             	mov    %rax,%r15
  4033c3:	48 89 05 36 4e 20 00 	mov    %rax,0x204e36(%rip)        # 608200 <__ctype_b_loc@plt+0x206940>
  4033ca:	e9 cc fe ff ff       	jmpq   40329b <__ctype_b_loc@plt+0x19db>
  4033cf:	e8 5c e1 ff ff       	callq  401530 <abort@plt>
  4033d4:	66 66 66 2e 0f 1f 84 	data16 data16 nopw %cs:0x0(%rax,%rax,1)
  4033db:	00 00 00 00 00 
  4033e0:	48 89 5c 24 e8       	mov    %rbx,-0x18(%rsp)
  4033e5:	48 89 6c 24 f0       	mov    %rbp,-0x10(%rsp)
  4033ea:	48 89 fb             	mov    %rdi,%rbx
  4033ed:	4c 89 64 24 f8       	mov    %r12,-0x8(%rsp)
  4033f2:	48 83 ec 18          	sub    $0x18,%rsp
  4033f6:	e8 45 e1 ff ff       	callq  401540 <__errno_location@plt>
  4033fb:	48 85 db             	test   %rbx,%rbx
  4033fe:	44 8b 20             	mov    (%rax),%r12d
  403401:	48 89 c5             	mov    %rax,%rbp
  403404:	b8 a0 82 60 00       	mov    $0x6082a0,%eax
  403409:	be 38 00 00 00       	mov    $0x38,%esi
  40340e:	48 0f 44 d8          	cmove  %rax,%rbx
  403412:	48 89 df             	mov    %rbx,%rdi
  403415:	e8 76 0d 00 00       	callq  404190 <__ctype_b_loc@plt+0x28d0>
  40341a:	44 89 65 00          	mov    %r12d,0x0(%rbp)
  40341e:	48 8b 1c 24          	mov    (%rsp),%rbx
  403422:	48 8b 6c 24 08       	mov    0x8(%rsp),%rbp
  403427:	4c 8b 64 24 10       	mov    0x10(%rsp),%r12
  40342c:	48 83 c4 18          	add    $0x18,%rsp
  403430:	c3                   	retq   
  403431:	66 66 66 66 66 66 2e 	data16 data16 data16 data16 data16 nopw %cs:0x0(%rax,%rax,1)
  403438:	0f 1f 84 00 00 00 00 
  40343f:	00 
  403440:	48 85 ff             	test   %rdi,%rdi
  403443:	b8 a0 82 60 00       	mov    $0x6082a0,%eax
  403448:	48 0f 44 f8          	cmove  %rax,%rdi
  40344c:	8b 07                	mov    (%rdi),%eax
  40344e:	c3                   	retq   
  40344f:	90                   	nop
  403450:	48 85 ff             	test   %rdi,%rdi
  403453:	b8 a0 82 60 00       	mov    $0x6082a0,%eax
  403458:	48 0f 44 f8          	cmove  %rax,%rdi
  40345c:	89 37                	mov    %esi,(%rdi)
  40345e:	c3                   	retq   
  40345f:	90                   	nop
  403460:	48 85 ff             	test   %rdi,%rdi
  403463:	b8 a0 82 60 00       	mov    $0x6082a0,%eax
  403468:	89 f1                	mov    %esi,%ecx
  40346a:	48 0f 44 f8          	cmove  %rax,%rdi
  40346e:	89 f0                	mov    %esi,%eax
  403470:	83 e1 1f             	and    $0x1f,%ecx
  403473:	c0 e8 05             	shr    $0x5,%al
  403476:	83 e2 01             	and    $0x1,%edx
  403479:	44 0f b6 c0          	movzbl %al,%r8d
  40347d:	46 8b 4c 87 08       	mov    0x8(%rdi,%r8,4),%r9d
  403482:	44 89 c8             	mov    %r9d,%eax
  403485:	d3 e8                	shr    %cl,%eax
  403487:	83 e0 01             	and    $0x1,%eax
  40348a:	31 c2                	xor    %eax,%edx
  40348c:	d3 e2                	shl    %cl,%edx
  40348e:	44 31 ca             	xor    %r9d,%edx
  403491:	42 89 54 87 08       	mov    %edx,0x8(%rdi,%r8,4)
  403496:	c3                   	retq   
  403497:	66 0f 1f 84 00 00 00 	nopw   0x0(%rax,%rax,1)
  40349e:	00 00 
  4034a0:	48 85 ff             	test   %rdi,%rdi
  4034a3:	b8 a0 82 60 00       	mov    $0x6082a0,%eax
  4034a8:	48 0f 44 f8          	cmove  %rax,%rdi
  4034ac:	8b 47 04             	mov    0x4(%rdi),%eax
  4034af:	89 77 04             	mov    %esi,0x4(%rdi)
  4034b2:	c3                   	retq   
  4034b3:	66 66 66 66 2e 0f 1f 	data16 data16 data16 nopw %cs:0x0(%rax,%rax,1)
  4034ba:	84 00 00 00 00 00 
  4034c0:	48 83 ec 08          	sub    $0x8,%rsp
  4034c4:	b8 a0 82 60 00       	mov    $0x6082a0,%eax
  4034c9:	48 85 ff             	test   %rdi,%rdi
  4034cc:	48 0f 44 f8          	cmove  %rax,%rdi
  4034d0:	48 85 d2             	test   %rdx,%rdx
  4034d3:	c7 07 08 00 00 00    	movl   $0x8,(%rdi)
  4034d9:	74 12                	je     4034ed <__ctype_b_loc@plt+0x1c2d>
  4034db:	48 85 f6             	test   %rsi,%rsi
  4034de:	74 0d                	je     4034ed <__ctype_b_loc@plt+0x1c2d>
  4034e0:	48 89 77 28          	mov    %rsi,0x28(%rdi)
  4034e4:	48 89 57 30          	mov    %rdx,0x30(%rdi)
  4034e8:	48 83 c4 08          	add    $0x8,%rsp
  4034ec:	c3                   	retq   
  4034ed:	e8 3e e0 ff ff       	callq  401530 <abort@plt>
  4034f2:	66 66 66 66 66 2e 0f 	data16 data16 data16 data16 nopw %cs:0x0(%rax,%rax,1)
  4034f9:	1f 84 00 00 00 00 00 
  403500:	48 89 5c 24 d0       	mov    %rbx,-0x30(%rsp)
  403505:	48 89 6c 24 d8       	mov    %rbp,-0x28(%rsp)
  40350a:	bb a0 82 60 00       	mov    $0x6082a0,%ebx
  40350f:	4c 89 64 24 e0       	mov    %r12,-0x20(%rsp)
  403514:	4c 89 6c 24 e8       	mov    %r13,-0x18(%rsp)
  403519:	49 89 f5             	mov    %rsi,%r13
  40351c:	4c 89 74 24 f0       	mov    %r14,-0x10(%rsp)
  403521:	4c 89 7c 24 f8       	mov    %r15,-0x8(%rsp)
  403526:	48 83 ec 68          	sub    $0x68,%rsp
  40352a:	4d 85 c0             	test   %r8,%r8
  40352d:	49 89 d6             	mov    %rdx,%r14
  403530:	49 89 cf             	mov    %rcx,%r15
  403533:	49 0f 45 d8          	cmovne %r8,%rbx
  403537:	48 89 7c 24 28       	mov    %rdi,0x28(%rsp)
  40353c:	e8 ff df ff ff       	callq  401540 <__errno_location@plt>
  403541:	44 8b 20             	mov    (%rax),%r12d
  403544:	48 89 c5             	mov    %rax,%rbp
  403547:	48 8b 43 30          	mov    0x30(%rbx),%rax
  40354b:	44 8b 4b 04          	mov    0x4(%rbx),%r9d
  40354f:	48 8b 7c 24 28       	mov    0x28(%rsp),%rdi
  403554:	4c 89 f9             	mov    %r15,%rcx
  403557:	4c 89 f2             	mov    %r14,%rdx
  40355a:	4c 89 ee             	mov    %r13,%rsi
  40355d:	48 89 44 24 10       	mov    %rax,0x10(%rsp)
  403562:	48 8b 43 28          	mov    0x28(%rbx),%rax
  403566:	48 89 44 24 08       	mov    %rax,0x8(%rsp)
  40356b:	48 8d 43 08          	lea    0x8(%rbx),%rax
  40356f:	48 89 04 24          	mov    %rax,(%rsp)
  403573:	44 8b 03             	mov    (%rbx),%r8d
  403576:	e8 25 f1 ff ff       	callq  4026a0 <__ctype_b_loc@plt+0xde0>
  40357b:	44 89 65 00          	mov    %r12d,0x0(%rbp)
  40357f:	48 8b 5c 24 38       	mov    0x38(%rsp),%rbx
  403584:	48 8b 6c 24 40       	mov    0x40(%rsp),%rbp
  403589:	4c 8b 64 24 48       	mov    0x48(%rsp),%r12
  40358e:	4c 8b 6c 24 50       	mov    0x50(%rsp),%r13
  403593:	4c 8b 74 24 58       	mov    0x58(%rsp),%r14
  403598:	4c 8b 7c 24 60       	mov    0x60(%rsp),%r15
  40359d:	48 83 c4 68          	add    $0x68,%rsp
  4035a1:	c3                   	retq   
  4035a2:	66 66 66 66 66 2e 0f 	data16 data16 data16 data16 nopw %cs:0x0(%rax,%rax,1)
  4035a9:	1f 84 00 00 00 00 00 
  4035b0:	48 89 5c 24 d0       	mov    %rbx,-0x30(%rsp)
  4035b5:	48 89 6c 24 d8       	mov    %rbp,-0x28(%rsp)
  4035ba:	bb a0 82 60 00       	mov    $0x6082a0,%ebx
  4035bf:	4c 89 64 24 e0       	mov    %r12,-0x20(%rsp)
  4035c4:	4c 89 6c 24 e8       	mov    %r13,-0x18(%rsp)
  4035c9:	49 89 d4             	mov    %rdx,%r12
  4035cc:	4c 89 74 24 f0       	mov    %r14,-0x10(%rsp)
  4035d1:	4c 89 7c 24 f8       	mov    %r15,-0x8(%rsp)
  4035d6:	48 81 ec 88 00 00 00 	sub    $0x88,%rsp
  4035dd:	48 85 c9             	test   %rcx,%rcx
  4035e0:	49 89 fd             	mov    %rdi,%r13
  4035e3:	49 89 f6             	mov    %rsi,%r14
  4035e6:	48 0f 45 d9          	cmovne %rcx,%rbx
  4035ea:	31 ed                	xor    %ebp,%ebp
  4035ec:	e8 4f df ff ff       	callq  401540 <__errno_location@plt>
  4035f1:	49 89 c7             	mov    %rax,%r15
  4035f4:	8b 00                	mov    (%rax),%eax
  4035f6:	4d 85 e4             	test   %r12,%r12
  4035f9:	40 0f 94 c5          	sete   %bpl
  4035fd:	0b 6b 04             	or     0x4(%rbx),%ebp
  403600:	4c 8d 53 08          	lea    0x8(%rbx),%r10
  403604:	4c 89 f1             	mov    %r14,%rcx
  403607:	4c 89 ea             	mov    %r13,%rdx
  40360a:	31 f6                	xor    %esi,%esi
  40360c:	89 44 24 4c          	mov    %eax,0x4c(%rsp)
  403610:	48 8b 43 30          	mov    0x30(%rbx),%rax
  403614:	31 ff                	xor    %edi,%edi
  403616:	41 89 e9             	mov    %ebp,%r9d
  403619:	48 89 44 24 10       	mov    %rax,0x10(%rsp)
  40361e:	48 8b 43 28          	mov    0x28(%rbx),%rax
  403622:	4c 89 14 24          	mov    %r10,(%rsp)
  403626:	48 89 44 24 08       	mov    %rax,0x8(%rsp)
  40362b:	44 8b 03             	mov    (%rbx),%r8d
  40362e:	4c 89 54 24 30       	mov    %r10,0x30(%rsp)
  403633:	e8 68 f0 ff ff       	callq  4026a0 <__ctype_b_loc@plt+0xde0>
  403638:	48 8d 70 01          	lea    0x1(%rax),%rsi
  40363c:	48 89 44 24 28       	mov    %rax,0x28(%rsp)
  403641:	48 89 f7             	mov    %rsi,%rdi
  403644:	48 89 74 24 38       	mov    %rsi,0x38(%rsp)
  403649:	e8 52 0a 00 00       	callq  4040a0 <__ctype_b_loc@plt+0x27e0>
  40364e:	48 89 44 24 40       	mov    %rax,0x40(%rsp)
  403653:	48 8b 43 30          	mov    0x30(%rbx),%rax
  403657:	41 89 e9             	mov    %ebp,%r9d
  40365a:	4c 8b 54 24 30       	mov    0x30(%rsp),%r10
  40365f:	48 8b 74 24 38       	mov    0x38(%rsp),%rsi
  403664:	4c 89 f1             	mov    %r14,%rcx
  403667:	48 8b 7c 24 40       	mov    0x40(%rsp),%rdi
  40366c:	4c 89 ea             	mov    %r13,%rdx
  40366f:	48 89 44 24 10       	mov    %rax,0x10(%rsp)
  403674:	48 8b 43 28          	mov    0x28(%rbx),%rax
  403678:	4c 89 14 24          	mov    %r10,(%rsp)
  40367c:	48 89 44 24 08       	mov    %rax,0x8(%rsp)
  403681:	44 8b 03             	mov    (%rbx),%r8d
  403684:	e8 17 f0 ff ff       	callq  4026a0 <__ctype_b_loc@plt+0xde0>
  403689:	8b 44 24 4c          	mov    0x4c(%rsp),%eax
  40368d:	4d 85 e4             	test   %r12,%r12
  403690:	4c 8b 5c 24 28       	mov    0x28(%rsp),%r11
  403695:	41 89 07             	mov    %eax,(%r15)
  403698:	74 04                	je     40369e <__ctype_b_loc@plt+0x1dde>
  40369a:	4d 89 1c 24          	mov    %r11,(%r12)
  40369e:	48 8b 44 24 40       	mov    0x40(%rsp),%rax
  4036a3:	48 8b 5c 24 58       	mov    0x58(%rsp),%rbx
  4036a8:	48 8b 6c 24 60       	mov    0x60(%rsp),%rbp
  4036ad:	4c 8b 64 24 68       	mov    0x68(%rsp),%r12
  4036b2:	4c 8b 6c 24 70       	mov    0x70(%rsp),%r13
  4036b7:	4c 8b 74 24 78       	mov    0x78(%rsp),%r14
  4036bc:	4c 8b bc 24 80 00 00 	mov    0x80(%rsp),%r15
  4036c3:	00 
  4036c4:	48 81 c4 88 00 00 00 	add    $0x88,%rsp
  4036cb:	c3                   	retq   
  4036cc:	0f 1f 40 00          	nopl   0x0(%rax)
  4036d0:	48 89 d1             	mov    %rdx,%rcx
  4036d3:	31 d2                	xor    %edx,%edx
  4036d5:	e9 d6 fe ff ff       	jmpq   4035b0 <__ctype_b_loc@plt+0x1cf0>
  4036da:	66 0f 1f 44 00 00    	nopw   0x0(%rax,%rax,1)
  4036e0:	41 54                	push   %r12
  4036e2:	8b 05 20 4b 20 00    	mov    0x204b20(%rip),%eax        # 608208 <__ctype_b_loc@plt+0x206948>
  4036e8:	4c 8b 25 11 4b 20 00 	mov    0x204b11(%rip),%r12        # 608200 <__ctype_b_loc@plt+0x206940>
  4036ef:	55                   	push   %rbp
  4036f0:	83 f8 01             	cmp    $0x1,%eax
  4036f3:	53                   	push   %rbx
  4036f4:	76 24                	jbe    40371a <__ctype_b_loc@plt+0x1e5a>
  4036f6:	83 e8 02             	sub    $0x2,%eax
  4036f9:	4c 89 e3             	mov    %r12,%rbx
  4036fc:	48 c1 e0 04          	shl    $0x4,%rax
  403700:	49 8d 6c 04 10       	lea    0x10(%r12,%rax,1),%rbp
  403705:	0f 1f 00             	nopl   (%rax)
  403708:	48 8b 7b 18          	mov    0x18(%rbx),%rdi
  40370c:	48 83 c3 10          	add    $0x10,%rbx
  403710:	e8 0b de ff ff       	callq  401520 <free@plt>
  403715:	48 39 eb             	cmp    %rbp,%rbx
  403718:	75 ee                	jne    403708 <__ctype_b_loc@plt+0x1e48>
  40371a:	49 8b 7c 24 08       	mov    0x8(%r12),%rdi
  40371f:	48 81 ff e0 82 60 00 	cmp    $0x6082e0,%rdi
  403726:	74 1b                	je     403743 <__ctype_b_loc@plt+0x1e83>
  403728:	e8 f3 dd ff ff       	callq  401520 <free@plt>
  40372d:	48 c7 05 d8 4a 20 00 	movq   $0x100,0x204ad8(%rip)        # 608210 <__ctype_b_loc@plt+0x206950>
  403734:	00 01 00 00 
  403738:	48 c7 05 d5 4a 20 00 	movq   $0x6082e0,0x204ad5(%rip)        # 608218 <__ctype_b_loc@plt+0x206958>
  40373f:	e0 82 60 00 
  403743:	49 81 fc 10 82 60 00 	cmp    $0x608210,%r12
  40374a:	74 13                	je     40375f <__ctype_b_loc@plt+0x1e9f>
  40374c:	4c 89 e7             	mov    %r12,%rdi
  40374f:	e8 cc dd ff ff       	callq  401520 <free@plt>
  403754:	48 c7 05 a1 4a 20 00 	movq   $0x608210,0x204aa1(%rip)        # 608200 <__ctype_b_loc@plt+0x206940>
  40375b:	10 82 60 00 
  40375f:	5b                   	pop    %rbx
  403760:	5d                   	pop    %rbp
  403761:	c7 05 9d 4a 20 00 01 	movl   $0x1,0x204a9d(%rip)        # 608208 <__ctype_b_loc@plt+0x206948>
  403768:	00 00 00 
  40376b:	41 5c                	pop    %r12
  40376d:	c3                   	retq   
  40376e:	66 90                	xchg   %ax,%ax
  403770:	b9 a0 82 60 00       	mov    $0x6082a0,%ecx
  403775:	48 c7 c2 ff ff ff ff 	mov    $0xffffffffffffffff,%rdx
  40377c:	e9 7f fa ff ff       	jmpq   403200 <__ctype_b_loc@plt+0x1940>
  403781:	66 66 66 66 66 66 2e 	data16 data16 data16 data16 data16 nopw %cs:0x0(%rax,%rax,1)
  403788:	0f 1f 84 00 00 00 00 
  40378f:	00 
  403790:	b9 a0 82 60 00       	mov    $0x6082a0,%ecx
  403795:	e9 66 fa ff ff       	jmpq   403200 <__ctype_b_loc@plt+0x1940>
  40379a:	66 0f 1f 44 00 00    	nopw   0x0(%rax,%rax,1)
  4037a0:	48 89 fe             	mov    %rdi,%rsi
  4037a3:	31 ff                	xor    %edi,%edi
  4037a5:	e9 c6 ff ff ff       	jmpq   403770 <__ctype_b_loc@plt+0x1eb0>
  4037aa:	66 0f 1f 44 00 00    	nopw   0x0(%rax,%rax,1)
  4037b0:	48 89 f2             	mov    %rsi,%rdx
  4037b3:	48 89 fe             	mov    %rdi,%rsi
  4037b6:	31 ff                	xor    %edi,%edi
  4037b8:	e9 d3 ff ff ff       	jmpq   403790 <__ctype_b_loc@plt+0x1ed0>
  4037bd:	0f 1f 00             	nopl   (%rax)
  4037c0:	48 89 5c 24 f0       	mov    %rbx,-0x10(%rsp)
  4037c5:	48 89 6c 24 f8       	mov    %rbp,-0x8(%rsp)
  4037ca:	48 83 ec 58          	sub    $0x58,%rsp
  4037ce:	48 89 d5             	mov    %rdx,%rbp
  4037d1:	89 fb                	mov    %edi,%ebx
  4037d3:	48 89 e7             	mov    %rsp,%rdi
  4037d6:	e8 55 ee ff ff       	callq  402630 <__ctype_b_loc@plt+0xd70>
  4037db:	48 89 e1             	mov    %rsp,%rcx
  4037de:	48 89 ee             	mov    %rbp,%rsi
  4037e1:	89 df                	mov    %ebx,%edi
  4037e3:	48 c7 c2 ff ff ff ff 	mov    $0xffffffffffffffff,%rdx
  4037ea:	e8 11 fa ff ff       	callq  403200 <__ctype_b_loc@plt+0x1940>
  4037ef:	48 8b 5c 24 48       	mov    0x48(%rsp),%rbx
  4037f4:	48 8b 6c 24 50       	mov    0x50(%rsp),%rbp
  4037f9:	48 83 c4 58          	add    $0x58,%rsp
  4037fd:	c3                   	retq   
  4037fe:	66 90                	xchg   %ax,%ax
  403800:	48 89 5c 24 e8       	mov    %rbx,-0x18(%rsp)
  403805:	48 89 6c 24 f0       	mov    %rbp,-0x10(%rsp)
  40380a:	89 fb                	mov    %edi,%ebx
  40380c:	4c 89 64 24 f8       	mov    %r12,-0x8(%rsp)
  403811:	48 83 ec 58          	sub    $0x58,%rsp
  403815:	48 89 d5             	mov    %rdx,%rbp
  403818:	49 89 cc             	mov    %rcx,%r12
  40381b:	48 89 e7             	mov    %rsp,%rdi
  40381e:	e8 0d ee ff ff       	callq  402630 <__ctype_b_loc@plt+0xd70>
  403823:	48 89 e1             	mov    %rsp,%rcx
  403826:	4c 89 e2             	mov    %r12,%rdx
  403829:	48 89 ee             	mov    %rbp,%rsi
  40382c:	89 df                	mov    %ebx,%edi
  40382e:	e8 cd f9 ff ff       	callq  403200 <__ctype_b_loc@plt+0x1940>
  403833:	48 8b 5c 24 40       	mov    0x40(%rsp),%rbx
  403838:	48 8b 6c 24 48       	mov    0x48(%rsp),%rbp
  40383d:	4c 8b 64 24 50       	mov    0x50(%rsp),%r12
  403842:	48 83 c4 58          	add    $0x58,%rsp
  403846:	c3                   	retq   
  403847:	66 0f 1f 84 00 00 00 	nopw   0x0(%rax,%rax,1)
  40384e:	00 00 
  403850:	48 89 f2             	mov    %rsi,%rdx
  403853:	89 fe                	mov    %edi,%esi
  403855:	31 ff                	xor    %edi,%edi
  403857:	e9 64 ff ff ff       	jmpq   4037c0 <__ctype_b_loc@plt+0x1f00>
  40385c:	0f 1f 40 00          	nopl   0x0(%rax)
  403860:	48 89 d1             	mov    %rdx,%rcx
  403863:	48 89 f2             	mov    %rsi,%rdx
  403866:	89 fe                	mov    %edi,%esi
  403868:	31 ff                	xor    %edi,%edi
  40386a:	e9 91 ff ff ff       	jmpq   403800 <__ctype_b_loc@plt+0x1f40>
  40386f:	90                   	nop
  403870:	48 83 ec 48          	sub    $0x48,%rsp
  403874:	48 8b 05 25 4a 20 00 	mov    0x204a25(%rip),%rax        # 6082a0 <stderr@@GLIBC_2.2.5+0x38>
  40387b:	89 d1                	mov    %edx,%ecx
  40387d:	83 e1 1f             	and    $0x1f,%ecx
  403880:	48 89 04 24          	mov    %rax,(%rsp)
  403884:	48 8b 05 1d 4a 20 00 	mov    0x204a1d(%rip),%rax        # 6082a8 <stderr@@GLIBC_2.2.5+0x40>
  40388b:	48 89 44 24 08       	mov    %rax,0x8(%rsp)
  403890:	48 8b 05 19 4a 20 00 	mov    0x204a19(%rip),%rax        # 6082b0 <stderr@@GLIBC_2.2.5+0x48>
  403897:	48 89 44 24 10       	mov    %rax,0x10(%rsp)
  40389c:	48 8b 05 15 4a 20 00 	mov    0x204a15(%rip),%rax        # 6082b8 <stderr@@GLIBC_2.2.5+0x50>
  4038a3:	48 89 44 24 18       	mov    %rax,0x18(%rsp)
  4038a8:	48 8b 05 11 4a 20 00 	mov    0x204a11(%rip),%rax        # 6082c0 <stderr@@GLIBC_2.2.5+0x58>
  4038af:	48 89 44 24 20       	mov    %rax,0x20(%rsp)
  4038b4:	48 8b 05 0d 4a 20 00 	mov    0x204a0d(%rip),%rax        # 6082c8 <stderr@@GLIBC_2.2.5+0x60>
  4038bb:	48 89 44 24 28       	mov    %rax,0x28(%rsp)
  4038c0:	48 8b 05 09 4a 20 00 	mov    0x204a09(%rip),%rax        # 6082d0 <stderr@@GLIBC_2.2.5+0x68>
  4038c7:	48 89 44 24 30       	mov    %rax,0x30(%rsp)
  4038cc:	89 d0                	mov    %edx,%eax
  4038ce:	48 89 f2             	mov    %rsi,%rdx
  4038d1:	c0 e8 05             	shr    $0x5,%al
  4038d4:	48 89 fe             	mov    %rdi,%rsi
  4038d7:	31 ff                	xor    %edi,%edi
  4038d9:	44 0f b6 c0          	movzbl %al,%r8d
  4038dd:	46 8b 4c 84 08       	mov    0x8(%rsp,%r8,4),%r9d
  4038e2:	44 89 c8             	mov    %r9d,%eax
  4038e5:	d3 e8                	shr    %cl,%eax
  4038e7:	83 e0 01             	and    $0x1,%eax
  4038ea:	83 f0 01             	xor    $0x1,%eax
  4038ed:	d3 e0                	shl    %cl,%eax
  4038ef:	48 89 e1             	mov    %rsp,%rcx
  4038f2:	44 31 c8             	xor    %r9d,%eax
  4038f5:	42 89 44 84 08       	mov    %eax,0x8(%rsp,%r8,4)
  4038fa:	e8 01 f9 ff ff       	callq  403200 <__ctype_b_loc@plt+0x1940>
  4038ff:	48 83 c4 48          	add    $0x48,%rsp
  403903:	c3                   	retq   
  403904:	66 66 66 2e 0f 1f 84 	data16 data16 nopw %cs:0x0(%rax,%rax,1)
  40390b:	00 00 00 00 00 
  403910:	40 0f be d6          	movsbl %sil,%edx
  403914:	48 c7 c6 ff ff ff ff 	mov    $0xffffffffffffffff,%rsi
  40391b:	e9 50 ff ff ff       	jmpq   403870 <__ctype_b_loc@plt+0x1fb0>
  403920:	be 3a 00 00 00       	mov    $0x3a,%esi
  403925:	e9 e6 ff ff ff       	jmpq   403910 <__ctype_b_loc@plt+0x2050>
  40392a:	66 0f 1f 44 00 00    	nopw   0x0(%rax,%rax,1)
  403930:	ba 3a 00 00 00       	mov    $0x3a,%edx
  403935:	e9 36 ff ff ff       	jmpq   403870 <__ctype_b_loc@plt+0x1fb0>
  40393a:	66 0f 1f 44 00 00    	nopw   0x0(%rax,%rax,1)
  403940:	48 89 5c 24 e8       	mov    %rbx,-0x18(%rsp)
  403945:	48 89 6c 24 f0       	mov    %rbp,-0x10(%rsp)
  40394a:	89 fb                	mov    %edi,%ebx
  40394c:	4c 89 64 24 f8       	mov    %r12,-0x8(%rsp)
  403951:	48 83 ec 58          	sub    $0x58,%rsp
  403955:	48 8b 05 44 49 20 00 	mov    0x204944(%rip),%rax        # 6082a0 <stderr@@GLIBC_2.2.5+0x38>
  40395c:	48 89 cd             	mov    %rcx,%rbp
  40395f:	4d 89 c4             	mov    %r8,%r12
  403962:	48 89 e7             	mov    %rsp,%rdi
  403965:	48 89 04 24          	mov    %rax,(%rsp)
  403969:	48 8b 05 38 49 20 00 	mov    0x204938(%rip),%rax        # 6082a8 <stderr@@GLIBC_2.2.5+0x40>
  403970:	48 89 44 24 08       	mov    %rax,0x8(%rsp)
  403975:	48 8b 05 34 49 20 00 	mov    0x204934(%rip),%rax        # 6082b0 <stderr@@GLIBC_2.2.5+0x48>
  40397c:	48 89 44 24 10       	mov    %rax,0x10(%rsp)
  403981:	48 8b 05 30 49 20 00 	mov    0x204930(%rip),%rax        # 6082b8 <stderr@@GLIBC_2.2.5+0x50>
  403988:	48 89 44 24 18       	mov    %rax,0x18(%rsp)
  40398d:	48 8b 05 2c 49 20 00 	mov    0x20492c(%rip),%rax        # 6082c0 <stderr@@GLIBC_2.2.5+0x58>
  403994:	48 89 44 24 20       	mov    %rax,0x20(%rsp)
  403999:	48 8b 05 28 49 20 00 	mov    0x204928(%rip),%rax        # 6082c8 <stderr@@GLIBC_2.2.5+0x60>
  4039a0:	48 89 44 24 28       	mov    %rax,0x28(%rsp)
  4039a5:	48 8b 05 24 49 20 00 	mov    0x204924(%rip),%rax        # 6082d0 <stderr@@GLIBC_2.2.5+0x68>
  4039ac:	48 89 44 24 30       	mov    %rax,0x30(%rsp)
  4039b1:	e8 0a fb ff ff       	callq  4034c0 <__ctype_b_loc@plt+0x1c00>
  4039b6:	48 89 e1             	mov    %rsp,%rcx
  4039b9:	4c 89 e2             	mov    %r12,%rdx
  4039bc:	48 89 ee             	mov    %rbp,%rsi
  4039bf:	89 df                	mov    %ebx,%edi
  4039c1:	e8 3a f8 ff ff       	callq  403200 <__ctype_b_loc@plt+0x1940>
  4039c6:	48 8b 5c 24 40       	mov    0x40(%rsp),%rbx
  4039cb:	48 8b 6c 24 48       	mov    0x48(%rsp),%rbp
  4039d0:	4c 8b 64 24 50       	mov    0x50(%rsp),%r12
  4039d5:	48 83 c4 58          	add    $0x58,%rsp
  4039d9:	c3                   	retq   
  4039da:	66 0f 1f 44 00 00    	nopw   0x0(%rax,%rax,1)
  4039e0:	49 c7 c0 ff ff ff ff 	mov    $0xffffffffffffffff,%r8
  4039e7:	e9 54 ff ff ff       	jmpq   403940 <__ctype_b_loc@plt+0x2080>
  4039ec:	0f 1f 40 00          	nopl   0x0(%rax)
  4039f0:	48 89 d1             	mov    %rdx,%rcx
  4039f3:	48 89 f2             	mov    %rsi,%rdx
  4039f6:	48 89 fe             	mov    %rdi,%rsi
  4039f9:	31 ff                	xor    %edi,%edi
  4039fb:	e9 e0 ff ff ff       	jmpq   4039e0 <__ctype_b_loc@plt+0x2120>
  403a00:	49 89 c8             	mov    %rcx,%r8
  403a03:	48 89 d1             	mov    %rdx,%rcx
  403a06:	48 89 f2             	mov    %rsi,%rdx
  403a09:	48 89 fe             	mov    %rdi,%rsi
  403a0c:	31 ff                	xor    %edi,%edi
  403a0e:	e9 2d ff ff ff       	jmpq   403940 <__ctype_b_loc@plt+0x2080>
  403a13:	90                   	nop
  403a14:	90                   	nop
  403a15:	90                   	nop
  403a16:	90                   	nop
  403a17:	90                   	nop
  403a18:	90                   	nop
  403a19:	90                   	nop
  403a1a:	90                   	nop
  403a1b:	90                   	nop
  403a1c:	90                   	nop
  403a1d:	90                   	nop
  403a1e:	90                   	nop
  403a1f:	90                   	nop
  403a20:	48 89 5c 24 d0       	mov    %rbx,-0x30(%rsp)
  403a25:	48 89 6c 24 d8       	mov    %rbp,-0x28(%rsp)
  403a2a:	4c 89 c3             	mov    %r8,%rbx
  403a2d:	4c 89 64 24 e0       	mov    %r12,-0x20(%rsp)
  403a32:	4c 89 6c 24 e8       	mov    %r13,-0x18(%rsp)
  403a37:	48 89 fd             	mov    %rdi,%rbp
  403a3a:	4c 89 74 24 f0       	mov    %r14,-0x10(%rsp)
  403a3f:	4c 89 7c 24 f8       	mov    %r15,-0x8(%rsp)
  403a44:	48 81 ec 88 00 00 00 	sub    $0x88,%rsp
  403a4b:	48 85 f6             	test   %rsi,%rsi
  403a4e:	4d 89 cc             	mov    %r9,%r12
  403a51:	0f 84 89 04 00 00    	je     403ee0 <__ctype_b_loc@plt+0x2620>
  403a57:	49 89 c9             	mov    %rcx,%r9
  403a5a:	49 89 d0             	mov    %rdx,%r8
  403a5d:	48 89 f1             	mov    %rsi,%rcx
  403a60:	ba 48 67 40 00       	mov    $0x406748,%edx
  403a65:	be 01 00 00 00       	mov    $0x1,%esi
  403a6a:	31 c0                	xor    %eax,%eax
  403a6c:	e8 0f de ff ff       	callq  401880 <__fprintf_chk@plt>
  403a71:	31 ff                	xor    %edi,%edi
  403a73:	ba 05 00 00 00       	mov    $0x5,%edx
  403a78:	be 5b 67 40 00       	mov    $0x40675b,%esi
  403a7d:	e8 4e db ff ff       	callq  4015d0 <dcgettext@plt>
  403a82:	41 b8 db 07 00 00    	mov    $0x7db,%r8d
  403a88:	48 89 c1             	mov    %rax,%rcx
  403a8b:	ba 20 6a 40 00       	mov    $0x406a20,%edx
  403a90:	be 01 00 00 00       	mov    $0x1,%esi
  403a95:	48 89 ef             	mov    %rbp,%rdi
  403a98:	31 c0                	xor    %eax,%eax
  403a9a:	e8 e1 dd ff ff       	callq  401880 <__fprintf_chk@plt>
  403a9f:	31 ff                	xor    %edi,%edi
  403aa1:	ba 05 00 00 00       	mov    $0x5,%edx
  403aa6:	be b8 67 40 00       	mov    $0x4067b8,%esi
  403aab:	e8 20 db ff ff       	callq  4015d0 <dcgettext@plt>
  403ab0:	48 89 ee             	mov    %rbp,%rsi
  403ab3:	48 89 c7             	mov    %rax,%rdi
  403ab6:	e8 65 dc ff ff       	callq  401720 <fputs_unlocked@plt>
  403abb:	49 83 fc 09          	cmp    $0x9,%r12
  403abf:	0f 86 bb 00 00 00    	jbe    403b80 <__ctype_b_loc@plt+0x22c0>
  403ac5:	48 8b 43 10          	mov    0x10(%rbx),%rax
  403ac9:	4c 8b 53 40          	mov    0x40(%rbx),%r10
  403acd:	ba 05 00 00 00       	mov    $0x5,%edx
  403ad2:	4c 8b 4b 38          	mov    0x38(%rbx),%r9
  403ad6:	4c 8b 6b 30          	mov    0x30(%rbx),%r13
  403ada:	be 90 69 40 00       	mov    $0x406990,%esi
  403adf:	4c 8b 63 28          	mov    0x28(%rbx),%r12
  403ae3:	4c 8b 7b 20          	mov    0x20(%rbx),%r15
  403ae7:	4c 8b 73 18          	mov    0x18(%rbx),%r14
  403aeb:	4c 8b 43 08          	mov    0x8(%rbx),%r8
  403aef:	48 8b 1b             	mov    (%rbx),%rbx
  403af2:	48 89 44 24 48       	mov    %rax,0x48(%rsp)
  403af7:	31 ff                	xor    %edi,%edi
  403af9:	4c 89 44 24 30       	mov    %r8,0x30(%rsp)
  403afe:	4c 89 4c 24 38       	mov    %r9,0x38(%rsp)
  403b03:	4c 89 54 24 40       	mov    %r10,0x40(%rsp)
  403b08:	e8 c3 da ff ff       	callq  4015d0 <dcgettext@plt>
  403b0d:	4c 8b 4c 24 38       	mov    0x38(%rsp),%r9
  403b12:	4c 8b 54 24 40       	mov    0x40(%rsp),%r10
  403b17:	48 89 c2             	mov    %rax,%rdx
  403b1a:	4c 8b 44 24 30       	mov    0x30(%rsp),%r8
  403b1f:	4c 89 6c 24 18       	mov    %r13,0x18(%rsp)
  403b24:	48 89 d9             	mov    %rbx,%rcx
  403b27:	4c 89 64 24 10       	mov    %r12,0x10(%rsp)
  403b2c:	4c 89 7c 24 08       	mov    %r15,0x8(%rsp)
  403b31:	be 01 00 00 00       	mov    $0x1,%esi
  403b36:	4c 89 4c 24 20       	mov    %r9,0x20(%rsp)
  403b3b:	4c 8b 4c 24 48       	mov    0x48(%rsp),%r9
  403b40:	48 89 ef             	mov    %rbp,%rdi
  403b43:	4c 89 54 24 28       	mov    %r10,0x28(%rsp)
  403b48:	4c 89 34 24          	mov    %r14,(%rsp)
  403b4c:	31 c0                	xor    %eax,%eax
  403b4e:	e8 2d dd ff ff       	callq  401880 <__fprintf_chk@plt>
  403b53:	48 8b 5c 24 58       	mov    0x58(%rsp),%rbx
  403b58:	48 8b 6c 24 60       	mov    0x60(%rsp),%rbp
  403b5d:	4c 8b 64 24 68       	mov    0x68(%rsp),%r12
  403b62:	4c 8b 6c 24 70       	mov    0x70(%rsp),%r13
  403b67:	4c 8b 74 24 78       	mov    0x78(%rsp),%r14
  403b6c:	4c 8b bc 24 80 00 00 	mov    0x80(%rsp),%r15
  403b73:	00 
  403b74:	48 81 c4 88 00 00 00 	add    $0x88,%rsp
  403b7b:	c3                   	retq   
  403b7c:	0f 1f 40 00          	nopl   0x0(%rax)
  403b80:	42 ff 24 e5 d0 69 40 	jmpq   *0x4069d0(,%r12,8)
  403b87:	00 
  403b88:	0f 1f 84 00 00 00 00 	nopl   0x0(%rax,%rax,1)
  403b8f:	00 
  403b90:	48 8b 43 10          	mov    0x10(%rbx),%rax
  403b94:	4c 8b 53 40          	mov    0x40(%rbx),%r10
  403b98:	ba 05 00 00 00       	mov    $0x5,%edx
  403b9d:	4c 8b 4b 38          	mov    0x38(%rbx),%r9
  403ba1:	4c 8b 6b 30          	mov    0x30(%rbx),%r13
  403ba5:	be 58 69 40 00       	mov    $0x406958,%esi
  403baa:	4c 8b 63 28          	mov    0x28(%rbx),%r12
  403bae:	4c 8b 7b 20          	mov    0x20(%rbx),%r15
  403bb2:	4c 8b 73 18          	mov    0x18(%rbx),%r14
  403bb6:	4c 8b 43 08          	mov    0x8(%rbx),%r8
  403bba:	48 89 44 24 48       	mov    %rax,0x48(%rsp)
  403bbf:	48 8b 1b             	mov    (%rbx),%rbx
  403bc2:	e9 30 ff ff ff       	jmpq   403af7 <__ctype_b_loc@plt+0x2237>
  403bc7:	66 0f 1f 84 00 00 00 	nopw   0x0(%rax,%rax,1)
  403bce:	00 00 
  403bd0:	e8 5b d9 ff ff       	callq  401530 <abort@plt>
  403bd5:	0f 1f 00             	nopl   (%rax)
  403bd8:	48 8b 1b             	mov    (%rbx),%rbx
  403bdb:	ba 05 00 00 00       	mov    $0x5,%edx
  403be0:	be 5f 67 40 00       	mov    $0x40675f,%esi
  403be5:	31 ff                	xor    %edi,%edi
  403be7:	e8 e4 d9 ff ff       	callq  4015d0 <dcgettext@plt>
  403bec:	48 89 d9             	mov    %rbx,%rcx
  403bef:	48 89 ef             	mov    %rbp,%rdi
  403bf2:	48 8b 5c 24 58       	mov    0x58(%rsp),%rbx
  403bf7:	48 8b 6c 24 60       	mov    0x60(%rsp),%rbp
  403bfc:	4c 8b 64 24 68       	mov    0x68(%rsp),%r12
  403c01:	48 89 c2             	mov    %rax,%rdx
  403c04:	4c 8b 6c 24 70       	mov    0x70(%rsp),%r13
  403c09:	4c 8b 74 24 78       	mov    0x78(%rsp),%r14
  403c0e:	be 01 00 00 00       	mov    $0x1,%esi
  403c13:	4c 8b bc 24 80 00 00 	mov    0x80(%rsp),%r15
  403c1a:	00 
  403c1b:	31 c0                	xor    %eax,%eax
  403c1d:	48 81 c4 88 00 00 00 	add    $0x88,%rsp
  403c24:	e9 57 dc ff ff       	jmpq   401880 <__fprintf_chk@plt>
  403c29:	0f 1f 80 00 00 00 00 	nopl   0x0(%rax)
  403c30:	4c 8b 63 08          	mov    0x8(%rbx),%r12
  403c34:	48 8b 1b             	mov    (%rbx),%rbx
  403c37:	ba 05 00 00 00       	mov    $0x5,%edx
  403c3c:	be 6f 67 40 00       	mov    $0x40676f,%esi
  403c41:	31 ff                	xor    %edi,%edi
  403c43:	e8 88 d9 ff ff       	callq  4015d0 <dcgettext@plt>
  403c48:	4d 89 e0             	mov    %r12,%r8
  403c4b:	48 89 d9             	mov    %rbx,%rcx
  403c4e:	48 89 ef             	mov    %rbp,%rdi
  403c51:	48 8b 5c 24 58       	mov    0x58(%rsp),%rbx
  403c56:	48 8b 6c 24 60       	mov    0x60(%rsp),%rbp
  403c5b:	48 89 c2             	mov    %rax,%rdx
  403c5e:	4c 8b 64 24 68       	mov    0x68(%rsp),%r12
  403c63:	4c 8b 6c 24 70       	mov    0x70(%rsp),%r13
  403c68:	be 01 00 00 00       	mov    $0x1,%esi
  403c6d:	4c 8b 74 24 78       	mov    0x78(%rsp),%r14
  403c72:	4c 8b bc 24 80 00 00 	mov    0x80(%rsp),%r15
  403c79:	00 
  403c7a:	31 c0                	xor    %eax,%eax
  403c7c:	48 81 c4 88 00 00 00 	add    $0x88,%rsp
  403c83:	e9 f8 db ff ff       	jmpq   401880 <__fprintf_chk@plt>
  403c88:	0f 1f 84 00 00 00 00 	nopl   0x0(%rax,%rax,1)
  403c8f:	00 
  403c90:	4c 8b 6b 10          	mov    0x10(%rbx),%r13
  403c94:	4c 8b 63 08          	mov    0x8(%rbx),%r12
  403c98:	ba 05 00 00 00       	mov    $0x5,%edx
  403c9d:	48 8b 1b             	mov    (%rbx),%rbx
  403ca0:	be 86 67 40 00       	mov    $0x406786,%esi
  403ca5:	31 ff                	xor    %edi,%edi
  403ca7:	e8 24 d9 ff ff       	callq  4015d0 <dcgettext@plt>
  403cac:	4d 89 e9             	mov    %r13,%r9
  403caf:	4d 89 e0             	mov    %r12,%r8
  403cb2:	48 89 ef             	mov    %rbp,%rdi
  403cb5:	48 89 d9             	mov    %rbx,%rcx
  403cb8:	48 8b 6c 24 60       	mov    0x60(%rsp),%rbp
  403cbd:	48 8b 5c 24 58       	mov    0x58(%rsp),%rbx
  403cc2:	4c 8b 64 24 68       	mov    0x68(%rsp),%r12
  403cc7:	4c 8b 6c 24 70       	mov    0x70(%rsp),%r13
  403ccc:	48 89 c2             	mov    %rax,%rdx
  403ccf:	4c 8b 74 24 78       	mov    0x78(%rsp),%r14
  403cd4:	4c 8b bc 24 80 00 00 	mov    0x80(%rsp),%r15
  403cdb:	00 
  403cdc:	be 01 00 00 00       	mov    $0x1,%esi
  403ce1:	31 c0                	xor    %eax,%eax
  403ce3:	48 81 c4 88 00 00 00 	add    $0x88,%rsp
  403cea:	e9 91 db ff ff       	jmpq   401880 <__fprintf_chk@plt>
  403cef:	90                   	nop
  403cf0:	4c 8b 73 18          	mov    0x18(%rbx),%r14
  403cf4:	4c 8b 6b 10          	mov    0x10(%rbx),%r13
  403cf8:	31 ff                	xor    %edi,%edi
  403cfa:	4c 8b 63 08          	mov    0x8(%rbx),%r12
  403cfe:	48 8b 1b             	mov    (%rbx),%rbx
  403d01:	ba 05 00 00 00       	mov    $0x5,%edx
  403d06:	be 88 68 40 00       	mov    $0x406888,%esi
  403d0b:	e8 c0 d8 ff ff       	callq  4015d0 <dcgettext@plt>
  403d10:	4c 89 34 24          	mov    %r14,(%rsp)
  403d14:	48 89 c2             	mov    %rax,%rdx
  403d17:	4d 89 e9             	mov    %r13,%r9
  403d1a:	4d 89 e0             	mov    %r12,%r8
  403d1d:	48 89 d9             	mov    %rbx,%rcx
  403d20:	be 01 00 00 00       	mov    $0x1,%esi
  403d25:	48 89 ef             	mov    %rbp,%rdi
  403d28:	31 c0                	xor    %eax,%eax
  403d2a:	e8 51 db ff ff       	callq  401880 <__fprintf_chk@plt>
  403d2f:	e9 1f fe ff ff       	jmpq   403b53 <__ctype_b_loc@plt+0x2293>
  403d34:	0f 1f 40 00          	nopl   0x0(%rax)
  403d38:	4c 8b 7b 20          	mov    0x20(%rbx),%r15
  403d3c:	4c 8b 73 18          	mov    0x18(%rbx),%r14
  403d40:	31 ff                	xor    %edi,%edi
  403d42:	4c 8b 6b 10          	mov    0x10(%rbx),%r13
  403d46:	4c 8b 63 08          	mov    0x8(%rbx),%r12
  403d4a:	ba 05 00 00 00       	mov    $0x5,%edx
  403d4f:	48 8b 1b             	mov    (%rbx),%rbx
  403d52:	be a8 68 40 00       	mov    $0x4068a8,%esi
  403d57:	e8 74 d8 ff ff       	callq  4015d0 <dcgettext@plt>
  403d5c:	4c 89 7c 24 08       	mov    %r15,0x8(%rsp)
  403d61:	48 89 c2             	mov    %rax,%rdx
  403d64:	4c 89 34 24          	mov    %r14,(%rsp)
  403d68:	4d 89 e9             	mov    %r13,%r9
  403d6b:	4d 89 e0             	mov    %r12,%r8
  403d6e:	48 89 d9             	mov    %rbx,%rcx
  403d71:	be 01 00 00 00       	mov    $0x1,%esi
  403d76:	48 89 ef             	mov    %rbp,%rdi
  403d79:	31 c0                	xor    %eax,%eax
  403d7b:	e8 00 db ff ff       	callq  401880 <__fprintf_chk@plt>
  403d80:	e9 ce fd ff ff       	jmpq   403b53 <__ctype_b_loc@plt+0x2293>
  403d85:	0f 1f 00             	nopl   (%rax)
  403d88:	4c 8b 43 08          	mov    0x8(%rbx),%r8
  403d8c:	4c 8b 63 28          	mov    0x28(%rbx),%r12
  403d90:	31 ff                	xor    %edi,%edi
  403d92:	4c 8b 7b 20          	mov    0x20(%rbx),%r15
  403d96:	4c 8b 73 18          	mov    0x18(%rbx),%r14
  403d9a:	ba 05 00 00 00       	mov    $0x5,%edx
  403d9f:	4c 8b 6b 10          	mov    0x10(%rbx),%r13
  403da3:	be d0 68 40 00       	mov    $0x4068d0,%esi
  403da8:	48 8b 1b             	mov    (%rbx),%rbx
  403dab:	4c 89 44 24 30       	mov    %r8,0x30(%rsp)
  403db0:	e8 1b d8 ff ff       	callq  4015d0 <dcgettext@plt>
  403db5:	4c 8b 44 24 30       	mov    0x30(%rsp),%r8
  403dba:	48 89 c2             	mov    %rax,%rdx
  403dbd:	4c 89 64 24 10       	mov    %r12,0x10(%rsp)
  403dc2:	4c 89 7c 24 08       	mov    %r15,0x8(%rsp)
  403dc7:	4c 89 34 24          	mov    %r14,(%rsp)
  403dcb:	4d 89 e9             	mov    %r13,%r9
  403dce:	48 89 d9             	mov    %rbx,%rcx
  403dd1:	be 01 00 00 00       	mov    $0x1,%esi
  403dd6:	48 89 ef             	mov    %rbp,%rdi
  403dd9:	31 c0                	xor    %eax,%eax
  403ddb:	e8 a0 da ff ff       	callq  401880 <__fprintf_chk@plt>
  403de0:	e9 6e fd ff ff       	jmpq   403b53 <__ctype_b_loc@plt+0x2293>
  403de5:	0f 1f 00             	nopl   (%rax)
  403de8:	4c 8b 4b 10          	mov    0x10(%rbx),%r9
  403dec:	4c 8b 43 08          	mov    0x8(%rbx),%r8
  403df0:	31 ff                	xor    %edi,%edi
  403df2:	4c 8b 6b 30          	mov    0x30(%rbx),%r13
  403df6:	4c 8b 63 28          	mov    0x28(%rbx),%r12
  403dfa:	ba 05 00 00 00       	mov    $0x5,%edx
  403dff:	4c 8b 7b 20          	mov    0x20(%rbx),%r15
  403e03:	4c 8b 73 18          	mov    0x18(%rbx),%r14
  403e07:	be f8 68 40 00       	mov    $0x4068f8,%esi
  403e0c:	48 8b 1b             	mov    (%rbx),%rbx
  403e0f:	4c 89 44 24 30       	mov    %r8,0x30(%rsp)
  403e14:	4c 89 4c 24 38       	mov    %r9,0x38(%rsp)
  403e19:	e8 b2 d7 ff ff       	callq  4015d0 <dcgettext@plt>
  403e1e:	4c 8b 4c 24 38       	mov    0x38(%rsp),%r9
  403e23:	4c 8b 44 24 30       	mov    0x30(%rsp),%r8
  403e28:	48 89 c2             	mov    %rax,%rdx
  403e2b:	4c 89 6c 24 18       	mov    %r13,0x18(%rsp)
  403e30:	4c 89 64 24 10       	mov    %r12,0x10(%rsp)
  403e35:	48 89 d9             	mov    %rbx,%rcx
  403e38:	4c 89 7c 24 08       	mov    %r15,0x8(%rsp)
  403e3d:	4c 89 34 24          	mov    %r14,(%rsp)
  403e41:	be 01 00 00 00       	mov    $0x1,%esi
  403e46:	48 89 ef             	mov    %rbp,%rdi
  403e49:	31 c0                	xor    %eax,%eax
  403e4b:	e8 30 da ff ff       	callq  401880 <__fprintf_chk@plt>
  403e50:	e9 fe fc ff ff       	jmpq   403b53 <__ctype_b_loc@plt+0x2293>
  403e55:	0f 1f 00             	nopl   (%rax)
  403e58:	4c 8b 4b 38          	mov    0x38(%rbx),%r9
  403e5c:	48 8b 43 10          	mov    0x10(%rbx),%rax
  403e60:	31 ff                	xor    %edi,%edi
  403e62:	4c 8b 43 08          	mov    0x8(%rbx),%r8
  403e66:	ba 05 00 00 00       	mov    $0x5,%edx
  403e6b:	be 28 69 40 00       	mov    $0x406928,%esi
  403e70:	4c 8b 6b 30          	mov    0x30(%rbx),%r13
  403e74:	4c 8b 63 28          	mov    0x28(%rbx),%r12
  403e78:	4c 8b 7b 20          	mov    0x20(%rbx),%r15
  403e7c:	4c 8b 73 18          	mov    0x18(%rbx),%r14
  403e80:	48 89 44 24 48       	mov    %rax,0x48(%rsp)
  403e85:	48 8b 1b             	mov    (%rbx),%rbx
  403e88:	4c 89 44 24 30       	mov    %r8,0x30(%rsp)
  403e8d:	4c 89 4c 24 38       	mov    %r9,0x38(%rsp)
  403e92:	e8 39 d7 ff ff       	callq  4015d0 <dcgettext@plt>
  403e97:	4c 8b 4c 24 38       	mov    0x38(%rsp),%r9
  403e9c:	4c 8b 44 24 30       	mov    0x30(%rsp),%r8
  403ea1:	48 89 c2             	mov    %rax,%rdx
  403ea4:	4c 89 6c 24 18       	mov    %r13,0x18(%rsp)
  403ea9:	4c 89 64 24 10       	mov    %r12,0x10(%rsp)
  403eae:	48 89 d9             	mov    %rbx,%rcx
  403eb1:	4c 89 7c 24 08       	mov    %r15,0x8(%rsp)
  403eb6:	4c 89 34 24          	mov    %r14,(%rsp)
  403eba:	be 01 00 00 00       	mov    $0x1,%esi
  403ebf:	4c 89 4c 24 20       	mov    %r9,0x20(%rsp)
  403ec4:	4c 8b 4c 24 48       	mov    0x48(%rsp),%r9
  403ec9:	48 89 ef             	mov    %rbp,%rdi
  403ecc:	31 c0                	xor    %eax,%eax
  403ece:	e8 ad d9 ff ff       	callq  401880 <__fprintf_chk@plt>
  403ed3:	e9 7b fc ff ff       	jmpq   403b53 <__ctype_b_loc@plt+0x2293>
  403ed8:	0f 1f 84 00 00 00 00 	nopl   0x0(%rax,%rax,1)
  403edf:	00 
  403ee0:	49 89 c8             	mov    %rcx,%r8
  403ee3:	be 01 00 00 00       	mov    $0x1,%esi
  403ee8:	48 89 d1             	mov    %rdx,%rcx
  403eeb:	31 c0                	xor    %eax,%eax
  403eed:	ba 54 67 40 00       	mov    $0x406754,%edx
  403ef2:	e8 89 d9 ff ff       	callq  401880 <__fprintf_chk@plt>
  403ef7:	e9 75 fb ff ff       	jmpq   403a71 <__ctype_b_loc@plt+0x21b1>
  403efc:	0f 1f 40 00          	nopl   0x0(%rax)
  403f00:	45 31 c9             	xor    %r9d,%r9d
  403f03:	49 83 38 00          	cmpq   $0x0,(%r8)
  403f07:	74 12                	je     403f1b <__ctype_b_loc@plt+0x265b>
  403f09:	0f 1f 80 00 00 00 00 	nopl   0x0(%rax)
  403f10:	49 83 c1 01          	add    $0x1,%r9
  403f14:	4b 83 3c c8 00       	cmpq   $0x0,(%r8,%r9,8)
  403f19:	75 f5                	jne    403f10 <__ctype_b_loc@plt+0x2650>
  403f1b:	e9 00 fb ff ff       	jmpq   403a20 <__ctype_b_loc@plt+0x2160>
  403f20:	48 83 ec 58          	sub    $0x58,%rsp
  403f24:	45 31 c9             	xor    %r9d,%r9d
  403f27:	eb 2b                	jmp    403f54 <__ctype_b_loc@plt+0x2694>
  403f29:	0f 1f 80 00 00 00 00 	nopl   0x0(%rax)
  403f30:	44 89 d0             	mov    %r10d,%eax
  403f33:	49 03 40 10          	add    0x10(%r8),%rax
  403f37:	41 83 c2 08          	add    $0x8,%r10d
  403f3b:	45 89 10             	mov    %r10d,(%r8)
  403f3e:	48 8b 00             	mov    (%rax),%rax
  403f41:	48 85 c0             	test   %rax,%rax
  403f44:	4a 89 04 cc          	mov    %rax,(%rsp,%r9,8)
  403f48:	74 2e                	je     403f78 <__ctype_b_loc@plt+0x26b8>
  403f4a:	49 83 c1 01          	add    $0x1,%r9
  403f4e:	49 83 f9 0a          	cmp    $0xa,%r9
  403f52:	74 24                	je     403f78 <__ctype_b_loc@plt+0x26b8>
  403f54:	45 8b 10             	mov    (%r8),%r10d
  403f57:	41 83 fa 30          	cmp    $0x30,%r10d
  403f5b:	72 d3                	jb     403f30 <__ctype_b_loc@plt+0x2670>
  403f5d:	49 8b 40 08          	mov    0x8(%r8),%rax
  403f61:	4c 8d 50 08          	lea    0x8(%rax),%r10
  403f65:	4d 89 50 08          	mov    %r10,0x8(%r8)
  403f69:	48 8b 00             	mov    (%rax),%rax
  403f6c:	48 85 c0             	test   %rax,%rax
  403f6f:	4a 89 04 cc          	mov    %rax,(%rsp,%r9,8)
  403f73:	75 d5                	jne    403f4a <__ctype_b_loc@plt+0x268a>
  403f75:	0f 1f 00             	nopl   (%rax)
  403f78:	49 89 e0             	mov    %rsp,%r8
  403f7b:	e8 a0 fa ff ff       	callq  403a20 <__ctype_b_loc@plt+0x2160>
  403f80:	48 83 c4 58          	add    $0x58,%rsp
  403f84:	c3                   	retq   
  403f85:	66 66 2e 0f 1f 84 00 	data16 nopw %cs:0x0(%rax,%rax,1)
  403f8c:	00 00 00 00 
  403f90:	48 81 ec d8 00 00 00 	sub    $0xd8,%rsp
  403f97:	84 c0                	test   %al,%al
  403f99:	4c 89 44 24 40       	mov    %r8,0x40(%rsp)
  403f9e:	4c 89 4c 24 48       	mov    %r9,0x48(%rsp)
  403fa3:	74 37                	je     403fdc <__ctype_b_loc@plt+0x271c>
  403fa5:	0f 29 44 24 50       	movaps %xmm0,0x50(%rsp)
  403faa:	0f 29 4c 24 60       	movaps %xmm1,0x60(%rsp)
  403faf:	0f 29 54 24 70       	movaps %xmm2,0x70(%rsp)
  403fb4:	0f 29 9c 24 80 00 00 	movaps %xmm3,0x80(%rsp)
  403fbb:	00 
  403fbc:	0f 29 a4 24 90 00 00 	movaps %xmm4,0x90(%rsp)
  403fc3:	00 
  403fc4:	0f 29 ac 24 a0 00 00 	movaps %xmm5,0xa0(%rsp)
  403fcb:	00 
  403fcc:	0f 29 b4 24 b0 00 00 	movaps %xmm6,0xb0(%rsp)
  403fd3:	00 
  403fd4:	0f 29 bc 24 c0 00 00 	movaps %xmm7,0xc0(%rsp)
  403fdb:	00 
  403fdc:	48 8d 84 24 e0 00 00 	lea    0xe0(%rsp),%rax
  403fe3:	00 
  403fe4:	4c 8d 44 24 08       	lea    0x8(%rsp),%r8
  403fe9:	c7 44 24 08 20 00 00 	movl   $0x20,0x8(%rsp)
  403ff0:	00 
  403ff1:	c7 44 24 0c 30 00 00 	movl   $0x30,0xc(%rsp)
  403ff8:	00 
  403ff9:	48 89 44 24 10       	mov    %rax,0x10(%rsp)
  403ffe:	48 8d 44 24 20       	lea    0x20(%rsp),%rax
  404003:	48 89 44 24 18       	mov    %rax,0x18(%rsp)
  404008:	e8 13 ff ff ff       	callq  403f20 <__ctype_b_loc@plt+0x2660>
  40400d:	48 81 c4 d8 00 00 00 	add    $0xd8,%rsp
  404014:	c3                   	retq   
  404015:	66 66 2e 0f 1f 84 00 	data16 nopw %cs:0x0(%rax,%rax,1)
  40401c:	00 00 00 00 
  404020:	53                   	push   %rbx
  404021:	ba 05 00 00 00       	mov    $0x5,%edx
  404026:	be a2 67 40 00       	mov    $0x4067a2,%esi
  40402b:	31 ff                	xor    %edi,%edi
  40402d:	e8 9e d5 ff ff       	callq  4015d0 <dcgettext@plt>
  404032:	ba 56 5d 40 00       	mov    $0x405d56,%edx
  404037:	48 89 c6             	mov    %rax,%rsi
  40403a:	bf 01 00 00 00       	mov    $0x1,%edi
  40403f:	31 c0                	xor    %eax,%eax
  404041:	e8 ba d7 ff ff       	callq  401800 <__printf_chk@plt>
  404046:	ba 05 00 00 00       	mov    $0x5,%edx
  40404b:	be 6c 5d 40 00       	mov    $0x405d6c,%esi
  404050:	31 ff                	xor    %edi,%edi
  404052:	e8 79 d5 ff ff       	callq  4015d0 <dcgettext@plt>
  404057:	b9 60 60 40 00       	mov    $0x406060,%ecx
  40405c:	48 89 c6             	mov    %rax,%rsi
  40405f:	ba 80 5d 40 00       	mov    $0x405d80,%edx
  404064:	bf 01 00 00 00       	mov    $0x1,%edi
  404069:	31 c0                	xor    %eax,%eax
  40406b:	e8 90 d7 ff ff       	callq  401800 <__printf_chk@plt>
  404070:	48 8b 1d d9 41 20 00 	mov    0x2041d9(%rip),%rbx        # 608250 <stdout@@GLIBC_2.2.5>
  404077:	be 88 60 40 00       	mov    $0x406088,%esi
  40407c:	31 ff                	xor    %edi,%edi
  40407e:	ba 05 00 00 00       	mov    $0x5,%edx
  404083:	e8 48 d5 ff ff       	callq  4015d0 <dcgettext@plt>
  404088:	48 89 de             	mov    %rbx,%rsi
  40408b:	48 89 c7             	mov    %rax,%rdi
  40408e:	5b                   	pop    %rbx
  40408f:	e9 8c d6 ff ff       	jmpq   401720 <fputs_unlocked@plt>
  404094:	90                   	nop
  404095:	90                   	nop
  404096:	90                   	nop
  404097:	90                   	nop
  404098:	90                   	nop
  404099:	90                   	nop
  40409a:	90                   	nop
  40409b:	90                   	nop
  40409c:	90                   	nop
  40409d:	90                   	nop
  40409e:	90                   	nop
  40409f:	90                   	nop
  4040a0:	53                   	push   %rbx
  4040a1:	48 89 fb             	mov    %rdi,%rbx
  4040a4:	e8 e7 d6 ff ff       	callq  401790 <malloc@plt>
  4040a9:	48 85 c0             	test   %rax,%rax
  4040ac:	74 02                	je     4040b0 <__ctype_b_loc@plt+0x27f0>
  4040ae:	5b                   	pop    %rbx
  4040af:	c3                   	retq   
  4040b0:	48 85 db             	test   %rbx,%rbx
  4040b3:	74 f9                	je     4040ae <__ctype_b_loc@plt+0x27ee>
  4040b5:	e8 36 01 00 00       	callq  4041f0 <__ctype_b_loc@plt+0x2930>
  4040ba:	66 0f 1f 44 00 00    	nopw   0x0(%rax,%rax,1)
  4040c0:	48 85 f6             	test   %rsi,%rsi
  4040c3:	53                   	push   %rbx
  4040c4:	48 89 f3             	mov    %rsi,%rbx
  4040c7:	74 17                	je     4040e0 <__ctype_b_loc@plt+0x2820>
  4040c9:	48 89 de             	mov    %rbx,%rsi
  4040cc:	e8 0f d7 ff ff       	callq  4017e0 <realloc@plt>
  4040d1:	48 85 c0             	test   %rax,%rax
  4040d4:	74 18                	je     4040ee <__ctype_b_loc@plt+0x282e>
  4040d6:	5b                   	pop    %rbx
  4040d7:	c3                   	retq   
  4040d8:	0f 1f 84 00 00 00 00 	nopl   0x0(%rax,%rax,1)
  4040df:	00 
  4040e0:	48 85 ff             	test   %rdi,%rdi
  4040e3:	74 e4                	je     4040c9 <__ctype_b_loc@plt+0x2809>
  4040e5:	e8 36 d4 ff ff       	callq  401520 <free@plt>
  4040ea:	31 c0                	xor    %eax,%eax
  4040ec:	5b                   	pop    %rbx
  4040ed:	c3                   	retq   
  4040ee:	48 85 db             	test   %rbx,%rbx
  4040f1:	74 e3                	je     4040d6 <__ctype_b_loc@plt+0x2816>
  4040f3:	e8 f8 00 00 00       	callq  4041f0 <__ctype_b_loc@plt+0x2930>
  4040f8:	0f 1f 84 00 00 00 00 	nopl   0x0(%rax,%rax,1)
  4040ff:	00 
  404100:	48 85 ff             	test   %rdi,%rdi
  404103:	48 8b 06             	mov    (%rsi),%rax
  404106:	74 28                	je     404130 <__ctype_b_loc@plt+0x2870>
  404108:	48 ba a9 aa aa aa aa 	movabs $0xaaaaaaaaaaaaaaa9,%rdx
  40410f:	aa aa aa 
  404112:	48 39 d0             	cmp    %rdx,%rax
  404115:	77 30                	ja     404147 <__ctype_b_loc@plt+0x2887>
  404117:	48 8d 50 01          	lea    0x1(%rax),%rdx
  40411b:	48 d1 ea             	shr    %rdx
  40411e:	48 01 d0             	add    %rdx,%rax
  404121:	48 89 06             	mov    %rax,(%rsi)
  404124:	48 89 c6             	mov    %rax,%rsi
  404127:	e9 94 ff ff ff       	jmpq   4040c0 <__ctype_b_loc@plt+0x2800>
  40412c:	0f 1f 40 00          	nopl   0x0(%rax)
  404130:	48 85 c0             	test   %rax,%rax
  404133:	ba 80 00 00 00       	mov    $0x80,%edx
  404138:	48 0f 44 c2          	cmove  %rdx,%rax
  40413c:	48 89 06             	mov    %rax,(%rsi)
  40413f:	48 89 c6             	mov    %rax,%rsi
  404142:	e9 79 ff ff ff       	jmpq   4040c0 <__ctype_b_loc@plt+0x2800>
  404147:	50                   	push   %rax
  404148:	e8 a3 00 00 00       	callq  4041f0 <__ctype_b_loc@plt+0x2930>
  40414d:	0f 1f 00             	nopl   (%rax)
  404150:	53                   	push   %rbx
  404151:	48 89 fb             	mov    %rdi,%rbx
  404154:	e8 47 ff ff ff       	callq  4040a0 <__ctype_b_loc@plt+0x27e0>
  404159:	48 89 da             	mov    %rbx,%rdx
  40415c:	31 f6                	xor    %esi,%esi
  40415e:	48 89 c7             	mov    %rax,%rdi
  404161:	5b                   	pop    %rbx
  404162:	e9 29 d5 ff ff       	jmpq   401690 <memset@plt>
  404167:	66 0f 1f 84 00 00 00 	nopw   0x0(%rax,%rax,1)
  40416e:	00 00 
  404170:	48 83 ec 08          	sub    $0x8,%rsp
  404174:	e8 b7 d5 ff ff       	callq  401730 <calloc@plt>
  404179:	48 85 c0             	test   %rax,%rax
  40417c:	74 05                	je     404183 <__ctype_b_loc@plt+0x28c3>
  40417e:	48 83 c4 08          	add    $0x8,%rsp
  404182:	c3                   	retq   
  404183:	e8 68 00 00 00       	callq  4041f0 <__ctype_b_loc@plt+0x2930>
  404188:	0f 1f 84 00 00 00 00 	nopl   0x0(%rax,%rax,1)
  40418f:	00 
  404190:	48 89 5c 24 f0       	mov    %rbx,-0x10(%rsp)
  404195:	48 89 6c 24 f8       	mov    %rbp,-0x8(%rsp)
  40419a:	48 89 f3             	mov    %rsi,%rbx
  40419d:	48 83 ec 18          	sub    $0x18,%rsp
  4041a1:	48 89 fd             	mov    %rdi,%rbp
  4041a4:	48 89 f7             	mov    %rsi,%rdi
  4041a7:	e8 f4 fe ff ff       	callq  4040a0 <__ctype_b_loc@plt+0x27e0>
  4041ac:	48 89 da             	mov    %rbx,%rdx
  4041af:	48 89 ee             	mov    %rbp,%rsi
  4041b2:	48 8b 5c 24 08       	mov    0x8(%rsp),%rbx
  4041b7:	48 8b 6c 24 10       	mov    0x10(%rsp),%rbp
  4041bc:	48 89 c7             	mov    %rax,%rdi
  4041bf:	48 83 c4 18          	add    $0x18,%rsp
  4041c3:	e9 78 d5 ff ff       	jmpq   401740 <memcpy@plt>
  4041c8:	0f 1f 84 00 00 00 00 	nopl   0x0(%rax,%rax,1)
  4041cf:	00 
  4041d0:	53                   	push   %rbx
  4041d1:	48 89 fb             	mov    %rdi,%rbx
  4041d4:	e8 17 d4 ff ff       	callq  4015f0 <strlen@plt>
  4041d9:	48 89 df             	mov    %rbx,%rdi
  4041dc:	48 8d 70 01          	lea    0x1(%rax),%rsi
  4041e0:	5b                   	pop    %rbx
  4041e1:	e9 aa ff ff ff       	jmpq   404190 <__ctype_b_loc@plt+0x28d0>
  4041e6:	90                   	nop
  4041e7:	90                   	nop
  4041e8:	90                   	nop
  4041e9:	90                   	nop
  4041ea:	90                   	nop
  4041eb:	90                   	nop
  4041ec:	90                   	nop
  4041ed:	90                   	nop
  4041ee:	90                   	nop
  4041ef:	90                   	nop
  4041f0:	48 83 ec 08          	sub    $0x8,%rsp
  4041f4:	ba 05 00 00 00       	mov    $0x5,%edx
  4041f9:	be 4f 6a 40 00       	mov    $0x406a4f,%esi
  4041fe:	31 ff                	xor    %edi,%edi
  404200:	e8 cb d3 ff ff       	callq  4015d0 <dcgettext@plt>
  404205:	8b 3d ed 3f 20 00    	mov    0x203fed(%rip),%edi        # 6081f8 <__ctype_b_loc@plt+0x206938>
  40420b:	48 89 c1             	mov    %rax,%rcx
  40420e:	ba 15 62 40 00       	mov    $0x406215,%edx
  404213:	31 f6                	xor    %esi,%esi
  404215:	31 c0                	xor    %eax,%eax
  404217:	e8 04 d6 ff ff       	callq  401820 <error@plt>
  40421c:	e8 0f d3 ff ff       	callq  401530 <abort@plt>
  404221:	90                   	nop
  404222:	90                   	nop
  404223:	90                   	nop
  404224:	90                   	nop
  404225:	90                   	nop
  404226:	90                   	nop
  404227:	90                   	nop
  404228:	90                   	nop
  404229:	90                   	nop
  40422a:	90                   	nop
  40422b:	90                   	nop
  40422c:	90                   	nop
  40422d:	90                   	nop
  40422e:	90                   	nop
  40422f:	90                   	nop
  404230:	53                   	push   %rbx
  404231:	31 f6                	xor    %esi,%esi
  404233:	31 ff                	xor    %edi,%edi
  404235:	e8 26 00 00 00       	callq  404260 <__ctype_b_loc@plt+0x29a0>
  40423a:	48 85 c0             	test   %rax,%rax
  40423d:	48 89 c3             	mov    %rax,%rbx
  404240:	74 0e                	je     404250 <__ctype_b_loc@plt+0x2990>
  404242:	48 89 d8             	mov    %rbx,%rax
  404245:	5b                   	pop    %rbx
  404246:	c3                   	retq   
  404247:	66 0f 1f 84 00 00 00 	nopw   0x0(%rax,%rax,1)
  40424e:	00 00 
  404250:	e8 eb d2 ff ff       	callq  401540 <__errno_location@plt>
  404255:	83 38 0c             	cmpl   $0xc,(%rax)
  404258:	75 e8                	jne    404242 <__ctype_b_loc@plt+0x2982>
  40425a:	e8 91 ff ff ff       	callq  4041f0 <__ctype_b_loc@plt+0x2930>
  40425f:	90                   	nop
  404260:	48 89 6c 24 d8       	mov    %rbp,-0x28(%rsp)
  404265:	4c 89 74 24 f0       	mov    %r14,-0x10(%rsp)
  40426a:	49 89 f6             	mov    %rsi,%r14
  40426d:	48 89 5c 24 d0       	mov    %rbx,-0x30(%rsp)
  404272:	4c 89 64 24 e0       	mov    %r12,-0x20(%rsp)
  404277:	4c 89 6c 24 e8       	mov    %r13,-0x18(%rsp)
  40427c:	4c 89 7c 24 f8       	mov    %r15,-0x8(%rsp)
  404281:	48 81 ec 38 11 00 00 	sub    $0x1138,%rsp
  404288:	64 48 8b 04 25 28 00 	mov    %fs:0x28,%rax
  40428f:	00 00 
  404291:	48 89 84 24 f8 10 00 	mov    %rax,0x10f8(%rsp)
  404298:	00 
  404299:	31 c0                	xor    %eax,%eax
  40429b:	48 89 7c 24 08       	mov    %rdi,0x8(%rsp)
  4042a0:	e8 fb d3 ff ff       	callq  4016a0 <getcwd@plt>
  4042a5:	48 85 c0             	test   %rax,%rax
  4042a8:	48 89 c5             	mov    %rax,%rbp
  4042ab:	74 53                	je     404300 <__ctype_b_loc@plt+0x2a40>
  4042ad:	48 8b 8c 24 f8 10 00 	mov    0x10f8(%rsp),%rcx
  4042b4:	00 
  4042b5:	64 48 33 0c 25 28 00 	xor    %fs:0x28,%rcx
  4042bc:	00 00 
  4042be:	48 89 e8             	mov    %rbp,%rax
  4042c1:	0f 85 75 05 00 00    	jne    40483c <__ctype_b_loc@plt+0x2f7c>
  4042c7:	48 8b 9c 24 08 11 00 	mov    0x1108(%rsp),%rbx
  4042ce:	00 
  4042cf:	48 8b ac 24 10 11 00 	mov    0x1110(%rsp),%rbp
  4042d6:	00 
  4042d7:	4c 8b a4 24 18 11 00 	mov    0x1118(%rsp),%r12
  4042de:	00 
  4042df:	4c 8b ac 24 20 11 00 	mov    0x1120(%rsp),%r13
  4042e6:	00 
  4042e7:	4c 8b b4 24 28 11 00 	mov    0x1128(%rsp),%r14
  4042ee:	00 
  4042ef:	4c 8b bc 24 30 11 00 	mov    0x1130(%rsp),%r15
  4042f6:	00 
  4042f7:	48 81 c4 38 11 00 00 	add    $0x1138,%rsp
  4042fe:	c3                   	retq   
  4042ff:	90                   	nop
  404300:	4d 85 f6             	test   %r14,%r14
  404303:	0f 85 57 03 00 00    	jne    404660 <__ctype_b_loc@plt+0x2da0>
  404309:	e8 32 d2 ff ff       	callq  401540 <__errno_location@plt>
  40430e:	48 89 c3             	mov    %rax,%rbx
  404311:	8b 00                	mov    (%rax),%eax
  404313:	83 f8 16             	cmp    $0x16,%eax
  404316:	0f 84 24 04 00 00    	je     404740 <__ctype_b_loc@plt+0x2e80>
  40431c:	83 f8 24             	cmp    $0x24,%eax
  40431f:	74 09                	je     40432a <__ctype_b_loc@plt+0x2a6a>
  404321:	83 f8 22             	cmp    $0x22,%eax
  404324:	0f 85 56 03 00 00    	jne    404680 <__ctype_b_loc@plt+0x2dc0>
  40432a:	4d 85 f6             	test   %r14,%r14
  40432d:	0f 85 ed 03 00 00    	jne    404720 <__ctype_b_loc@plt+0x2e60>
  404333:	48 83 7c 24 08 00    	cmpq   $0x0,0x8(%rsp)
  404339:	48 c7 44 24 28 00 10 	movq   $0x1000,0x28(%rsp)
  404340:	00 00 
  404342:	0f 85 70 04 00 00    	jne    4047b8 <__ctype_b_loc@plt+0x2ef8>
  404348:	48 8b 7c 24 28       	mov    0x28(%rsp),%rdi
  40434d:	e8 3e d4 ff ff       	callq  401790 <malloc@plt>
  404352:	48 85 c0             	test   %rax,%rax
  404355:	48 89 44 24 30       	mov    %rax,0x30(%rsp)
  40435a:	0f 84 4d ff ff ff    	je     4042ad <__ctype_b_loc@plt+0x29ed>
  404360:	4c 8b 64 24 30       	mov    0x30(%rsp),%r12
  404365:	4c 03 64 24 28       	add    0x28(%rsp),%r12
  40436a:	48 8d 54 24 60       	lea    0x60(%rsp),%rdx
  40436f:	be de 5c 40 00       	mov    $0x405cde,%esi
  404374:	bf 01 00 00 00       	mov    $0x1,%edi
  404379:	49 8d 44 24 ff       	lea    -0x1(%r12),%rax
  40437e:	41 c6 44 24 ff 00    	movb   $0x0,-0x1(%r12)
  404384:	48 89 44 24 40       	mov    %rax,0x40(%rsp)
  404389:	e8 72 d2 ff ff       	callq  401600 <__lxstat@plt>
  40438e:	85 c0                	test   %eax,%eax
  404390:	0f 88 2d 04 00 00    	js     4047c3 <__ctype_b_loc@plt+0x2f03>
  404396:	48 8b 54 24 60       	mov    0x60(%rsp),%rdx
  40439b:	be 56 62 40 00       	mov    $0x406256,%esi
  4043a0:	bf 01 00 00 00       	mov    $0x1,%edi
  4043a5:	4c 8b 6c 24 68       	mov    0x68(%rsp),%r13
  4043aa:	48 89 54 24 10       	mov    %rdx,0x10(%rsp)
  4043af:	48 8d 54 24 60       	lea    0x60(%rsp),%rdx
  4043b4:	e8 47 d2 ff ff       	callq  401600 <__lxstat@plt>
  4043b9:	85 c0                	test   %eax,%eax
  4043bb:	0f 88 02 04 00 00    	js     4047c3 <__ctype_b_loc@plt+0x2f03>
  4043c1:	48 8b 4c 24 60       	mov    0x60(%rsp),%rcx
  4043c6:	48 39 4c 24 10       	cmp    %rcx,0x10(%rsp)
  4043cb:	48 8b 44 24 68       	mov    0x68(%rsp),%rax
  4043d0:	48 89 4c 24 38       	mov    %rcx,0x38(%rsp)
  4043d5:	48 89 44 24 48       	mov    %rax,0x48(%rsp)
  4043da:	0f 84 19 04 00 00    	je     4047f9 <__ctype_b_loc@plt+0x2f39>
  4043e0:	b9 9c ff ff ff       	mov    $0xffffff9c,%ecx
  4043e5:	4c 89 74 24 50       	mov    %r14,0x50(%rsp)
  4043ea:	45 31 ff             	xor    %r15d,%r15d
  4043ed:	48 89 6c 24 20       	mov    %rbp,0x20(%rsp)
  4043f2:	41 89 cc             	mov    %ecx,%r12d
  4043f5:	4d 89 ee             	mov    %r13,%r14
  4043f8:	31 d2                	xor    %edx,%edx
  4043fa:	44 89 e7             	mov    %r12d,%edi
  4043fd:	31 c0                	xor    %eax,%eax
  4043ff:	be dd 5c 40 00       	mov    $0x405cdd,%esi
  404404:	e8 07 d2 ff ff       	callq  401610 <openat@plt>
  404409:	85 c0                	test   %eax,%eax
  40440b:	41 89 c4             	mov    %eax,%r12d
  40440e:	0f 88 1c 04 00 00    	js     404830 <__ctype_b_loc@plt+0x2f70>
  404414:	48 8d 54 24 60       	lea    0x60(%rsp),%rdx
  404419:	89 c6                	mov    %eax,%esi
  40441b:	bf 01 00 00 00       	mov    $0x1,%edi
  404420:	e8 8b d3 ff ff       	callq  4017b0 <__fxstat@plt>
  404425:	85 c0                	test   %eax,%eax
  404427:	0f 85 e3 03 00 00    	jne    404810 <__ctype_b_loc@plt+0x2f50>
  40442d:	4d 85 ff             	test   %r15,%r15
  404430:	74 10                	je     404442 <__ctype_b_loc@plt+0x2b82>
  404432:	4c 89 ff             	mov    %r15,%rdi
  404435:	e8 96 d2 ff ff       	callq  4016d0 <closedir@plt>
  40443a:	85 c0                	test   %eax,%eax
  40443c:	0f 85 a7 03 00 00    	jne    4047e9 <__ctype_b_loc@plt+0x2f29>
  404442:	48 8b 54 24 60       	mov    0x60(%rsp),%rdx
  404447:	48 8b 4c 24 68       	mov    0x68(%rsp),%rcx
  40444c:	44 89 e7             	mov    %r12d,%edi
  40444f:	48 89 54 24 18       	mov    %rdx,0x18(%rsp)
  404454:	48 89 4c 24 58       	mov    %rcx,0x58(%rsp)
  404459:	e8 e2 d3 ff ff       	callq  401840 <fdopendir@plt>
  40445e:	48 85 c0             	test   %rax,%rax
  404461:	49 89 c7             	mov    %rax,%r15
  404464:	0f 84 7f 03 00 00    	je     4047e9 <__ctype_b_loc@plt+0x2f29>
  40446a:	41 bd 01 00 00 00    	mov    $0x1,%r13d
  404470:	c7 03 00 00 00 00    	movl   $0x0,(%rbx)
  404476:	4c 89 ff             	mov    %r15,%rdi
  404479:	e8 02 d3 ff ff       	callq  401780 <readdir@plt>
  40447e:	48 85 c0             	test   %rax,%rax
  404481:	0f 84 31 02 00 00    	je     4046b8 <__ctype_b_loc@plt+0x2df8>
  404487:	80 78 13 2e          	cmpb   $0x2e,0x13(%rax)
  40448b:	0f 84 07 02 00 00    	je     404698 <__ctype_b_loc@plt+0x2dd8>
  404491:	45 84 ed             	test   %r13b,%r13b
  404494:	74 11                	je     4044a7 <__ctype_b_loc@plt+0x2be7>
  404496:	4c 39 30             	cmp    %r14,(%rax)
  404499:	74 0c                	je     4044a7 <__ctype_b_loc@plt+0x2be7>
  40449b:	48 8b 54 24 18       	mov    0x18(%rsp),%rdx
  4044a0:	48 39 54 24 10       	cmp    %rdx,0x10(%rsp)
  4044a5:	74 c9                	je     404470 <__ctype_b_loc@plt+0x2bb0>
  4044a7:	48 8d 68 13          	lea    0x13(%rax),%rbp
  4044ab:	48 8d 4c 24 60       	lea    0x60(%rsp),%rcx
  4044b0:	41 b8 00 01 00 00    	mov    $0x100,%r8d
  4044b6:	44 89 e6             	mov    %r12d,%esi
  4044b9:	bf 01 00 00 00       	mov    $0x1,%edi
  4044be:	48 89 ea             	mov    %rbp,%rdx
  4044c1:	e8 9a d1 ff ff       	callq  401660 <__fxstatat@plt>
  4044c6:	85 c0                	test   %eax,%eax
  4044c8:	75 a6                	jne    404470 <__ctype_b_loc@plt+0x2bb0>
  4044ca:	8b 44 24 78          	mov    0x78(%rsp),%eax
  4044ce:	25 00 f0 00 00       	and    $0xf000,%eax
  4044d3:	3d 00 40 00 00       	cmp    $0x4000,%eax
  4044d8:	75 96                	jne    404470 <__ctype_b_loc@plt+0x2bb0>
  4044da:	48 8b 4c 24 10       	mov    0x10(%rsp),%rcx
  4044df:	48 39 4c 24 60       	cmp    %rcx,0x60(%rsp)
  4044e4:	75 8a                	jne    404470 <__ctype_b_loc@plt+0x2bb0>
  4044e6:	4c 39 74 24 68       	cmp    %r14,0x68(%rsp)
  4044eb:	75 83                	jne    404470 <__ctype_b_loc@plt+0x2bb0>
  4044ed:	48 8b 44 24 40       	mov    0x40(%rsp),%rax
  4044f2:	48 2b 44 24 30       	sub    0x30(%rsp),%rax
  4044f7:	48 89 ef             	mov    %rbp,%rdi
  4044fa:	48 89 44 24 10       	mov    %rax,0x10(%rsp)
  4044ff:	e8 ec d0 ff ff       	callq  4015f0 <strlen@plt>
  404504:	48 39 44 24 10       	cmp    %rax,0x10(%rsp)
  404509:	49 89 c6             	mov    %rax,%r14
  40450c:	77 79                	ja     404587 <__ctype_b_loc@plt+0x2cc7>
  40450e:	48 83 7c 24 50 00    	cmpq   $0x0,0x50(%rsp)
  404514:	0f 85 70 03 00 00    	jne    40488a <__ctype_b_loc@plt+0x2fca>
  40451a:	48 3b 44 24 28       	cmp    0x28(%rsp),%rax
  40451f:	4c 8b 6c 24 28       	mov    0x28(%rsp),%r13
  404524:	4c 0f 43 e8          	cmovae %rax,%r13
  404528:	4c 03 6c 24 28       	add    0x28(%rsp),%r13
  40452d:	0f 82 3e 03 00 00    	jb     404871 <__ctype_b_loc@plt+0x2fb1>
  404533:	48 8b 7c 24 30       	mov    0x30(%rsp),%rdi
  404538:	4c 89 ee             	mov    %r13,%rsi
  40453b:	e8 a0 d2 ff ff       	callq  4017e0 <realloc@plt>
  404540:	48 85 c0             	test   %rax,%rax
  404543:	0f 84 28 03 00 00    	je     404871 <__ctype_b_loc@plt+0x2fb1>
  404549:	48 8b 7c 24 10       	mov    0x10(%rsp),%rdi
  40454e:	48 2b 7c 24 28       	sub    0x28(%rsp),%rdi
  404553:	48 8b 54 24 28       	mov    0x28(%rsp),%rdx
  404558:	48 8b 74 24 10       	mov    0x10(%rsp),%rsi
  40455d:	48 2b 54 24 10       	sub    0x10(%rsp),%rdx
  404562:	48 89 04 24          	mov    %rax,(%rsp)
  404566:	4c 01 ef             	add    %r13,%rdi
  404569:	48 01 c6             	add    %rax,%rsi
  40456c:	48 01 c7             	add    %rax,%rdi
  40456f:	e8 cc d1 ff ff       	callq  401740 <memcpy@plt>
  404574:	48 8b 0c 24          	mov    (%rsp),%rcx
  404578:	48 89 44 24 40       	mov    %rax,0x40(%rsp)
  40457d:	4c 89 6c 24 28       	mov    %r13,0x28(%rsp)
  404582:	48 89 4c 24 30       	mov    %rcx,0x30(%rsp)
  404587:	4c 8b 6c 24 40       	mov    0x40(%rsp),%r13
  40458c:	4c 89 f2             	mov    %r14,%rdx
  40458f:	48 89 ee             	mov    %rbp,%rsi
  404592:	4d 29 f5             	sub    %r14,%r13
  404595:	4c 89 ef             	mov    %r13,%rdi
  404598:	e8 a3 d1 ff ff       	callq  401740 <memcpy@plt>
  40459d:	4c 8b 74 24 58       	mov    0x58(%rsp),%r14
  4045a2:	4c 39 74 24 48       	cmp    %r14,0x48(%rsp)
  4045a7:	49 8d 45 ff          	lea    -0x1(%r13),%rax
  4045ab:	48 8b 54 24 18       	mov    0x18(%rsp),%rdx
  4045b0:	41 c6 45 ff 2f       	movb   $0x2f,-0x1(%r13)
  4045b5:	48 89 44 24 40       	mov    %rax,0x40(%rsp)
  4045ba:	48 89 54 24 10       	mov    %rdx,0x10(%rsp)
  4045bf:	0f 85 33 fe ff ff    	jne    4043f8 <__ctype_b_loc@plt+0x2b38>
  4045c5:	48 39 54 24 38       	cmp    %rdx,0x38(%rsp)
  4045ca:	0f 85 28 fe ff ff    	jne    4043f8 <__ctype_b_loc@plt+0x2b38>
  4045d0:	4c 89 ff             	mov    %r15,%rdi
  4045d3:	48 8b 6c 24 20       	mov    0x20(%rsp),%rbp
  4045d8:	4c 8b 74 24 50       	mov    0x50(%rsp),%r14
  4045dd:	44 89 24 24          	mov    %r12d,(%rsp)
  4045e1:	e8 ea d0 ff ff       	callq  4016d0 <closedir@plt>
  4045e6:	85 c0                	test   %eax,%eax
  4045e8:	8b 0c 24             	mov    (%rsp),%ecx
  4045eb:	0f 85 5f 02 00 00    	jne    404850 <__ctype_b_loc@plt+0x2f90>
  4045f1:	4c 8b 64 24 30       	mov    0x30(%rsp),%r12
  4045f6:	4c 03 64 24 28       	add    0x28(%rsp),%r12
  4045fb:	48 8b 54 24 30       	mov    0x30(%rsp),%rdx
  404600:	48 8b 4c 24 28       	mov    0x28(%rsp),%rcx
  404605:	48 8d 44 0a ff       	lea    -0x1(%rdx,%rcx,1),%rax
  40460a:	48 3b 44 24 40       	cmp    0x40(%rsp),%rax
  40460f:	0f 84 2c 02 00 00    	je     404841 <__ctype_b_loc@plt+0x2f81>
  404615:	4c 2b 64 24 40       	sub    0x40(%rsp),%r12
  40461a:	48 8b 74 24 40       	mov    0x40(%rsp),%rsi
  40461f:	48 8b 7c 24 30       	mov    0x30(%rsp),%rdi
  404624:	4c 89 e2             	mov    %r12,%rdx
  404627:	e8 e4 d1 ff ff       	callq  401810 <memmove@plt>
  40462c:	4d 85 f6             	test   %r14,%r14
  40462f:	75 12                	jne    404643 <__ctype_b_loc@plt+0x2d83>
  404631:	48 8b 7c 24 30       	mov    0x30(%rsp),%rdi
  404636:	4c 89 e6             	mov    %r12,%rsi
  404639:	e8 a2 d1 ff ff       	callq  4017e0 <realloc@plt>
  40463e:	48 89 44 24 08       	mov    %rax,0x8(%rsp)
  404643:	48 83 7c 24 08 00    	cmpq   $0x0,0x8(%rsp)
  404649:	48 8b 6c 24 08       	mov    0x8(%rsp),%rbp
  40464e:	48 0f 44 6c 24 30    	cmove  0x30(%rsp),%rbp
  404654:	e9 54 fc ff ff       	jmpq   4042ad <__ctype_b_loc@plt+0x29ed>
  404659:	0f 1f 80 00 00 00 00 	nopl   0x0(%rax)
  404660:	e8 db ce ff ff       	callq  401540 <__errno_location@plt>
  404665:	48 89 c3             	mov    %rax,%rbx
  404668:	8b 00                	mov    (%rax),%eax
  40466a:	83 f8 22             	cmp    $0x22,%eax
  40466d:	0f 85 a0 fc ff ff    	jne    404313 <__ctype_b_loc@plt+0x2a53>
  404673:	e9 35 fc ff ff       	jmpq   4042ad <__ctype_b_loc@plt+0x29ed>
  404678:	0f 1f 84 00 00 00 00 	nopl   0x0(%rax,%rax,1)
  40467f:	00 
  404680:	83 f8 02             	cmp    $0x2,%eax
  404683:	0f 84 a1 fc ff ff    	je     40432a <__ctype_b_loc@plt+0x2a6a>
  404689:	0f 1f 80 00 00 00 00 	nopl   0x0(%rax)
  404690:	e9 18 fc ff ff       	jmpq   4042ad <__ctype_b_loc@plt+0x29ed>
  404695:	0f 1f 00             	nopl   (%rax)
  404698:	80 78 14 00          	cmpb   $0x0,0x14(%rax)
  40469c:	0f 84 ce fd ff ff    	je     404470 <__ctype_b_loc@plt+0x2bb0>
  4046a2:	66 83 78 14 2e       	cmpw   $0x2e,0x14(%rax)
  4046a7:	0f 85 e4 fd ff ff    	jne    404491 <__ctype_b_loc@plt+0x2bd1>
  4046ad:	e9 be fd ff ff       	jmpq   404470 <__ctype_b_loc@plt+0x2bb0>
  4046b2:	66 0f 1f 44 00 00    	nopw   0x0(%rax,%rax,1)
  4046b8:	8b 03                	mov    (%rbx),%eax
  4046ba:	85 c0                	test   %eax,%eax
  4046bc:	75 52                	jne    404710 <__ctype_b_loc@plt+0x2e50>
  4046be:	45 84 ed             	test   %r13b,%r13b
  4046c1:	0f 85 b9 00 00 00    	jne    404780 <__ctype_b_loc@plt+0x2ec0>
  4046c7:	48 8b 6c 24 20       	mov    0x20(%rsp),%rbp
  4046cc:	44 89 e1             	mov    %r12d,%ecx
  4046cf:	c7 03 02 00 00 00    	movl   $0x2,(%rbx)
  4046d5:	41 bc 02 00 00 00    	mov    $0x2,%r12d
  4046db:	45 31 ed             	xor    %r13d,%r13d
  4046de:	4c 89 ff             	mov    %r15,%rdi
  4046e1:	89 0c 24             	mov    %ecx,(%rsp)
  4046e4:	e8 e7 cf ff ff       	callq  4016d0 <closedir@plt>
  4046e9:	8b 0c 24             	mov    (%rsp),%ecx
  4046ec:	45 84 ed             	test   %r13b,%r13b
  4046ef:	0f 85 b3 00 00 00    	jne    4047a8 <__ctype_b_loc@plt+0x2ee8>
  4046f5:	48 83 7c 24 08 00    	cmpq   $0x0,0x8(%rsp)
  4046fb:	0f 84 d2 00 00 00    	je     4047d3 <__ctype_b_loc@plt+0x2f13>
  404701:	44 89 23             	mov    %r12d,(%rbx)
  404704:	e9 a4 fb ff ff       	jmpq   4042ad <__ctype_b_loc@plt+0x29ed>
  404709:	0f 1f 80 00 00 00 00 	nopl   0x0(%rax)
  404710:	44 89 e1             	mov    %r12d,%ecx
  404713:	48 8b 6c 24 20       	mov    0x20(%rsp),%rbp
  404718:	41 89 c4             	mov    %eax,%r12d
  40471b:	eb be                	jmp    4046db <__ctype_b_loc@plt+0x2e1b>
  40471d:	0f 1f 00             	nopl   (%rax)
  404720:	48 83 7c 24 08 00    	cmpq   $0x0,0x8(%rsp)
  404726:	4c 89 74 24 28       	mov    %r14,0x28(%rsp)
  40472b:	0f 84 17 fc ff ff    	je     404348 <__ctype_b_loc@plt+0x2a88>
  404731:	48 8b 54 24 08       	mov    0x8(%rsp),%rdx
  404736:	48 89 54 24 30       	mov    %rdx,0x30(%rsp)
  40473b:	e9 20 fc ff ff       	jmpq   404360 <__ctype_b_loc@plt+0x2aa0>
  404740:	4d 85 f6             	test   %r14,%r14
  404743:	0f 85 64 fb ff ff    	jne    4042ad <__ctype_b_loc@plt+0x29ed>
  404749:	48 83 7c 24 08 00    	cmpq   $0x0,0x8(%rsp)
  40474f:	0f 85 58 fb ff ff    	jne    4042ad <__ctype_b_loc@plt+0x29ed>
  404755:	48 8d bc 24 f0 00 00 	lea    0xf0(%rsp),%rdi
  40475c:	00 
  40475d:	be 00 10 00 00       	mov    $0x1000,%esi
  404762:	e8 39 cf ff ff       	callq  4016a0 <getcwd@plt>
  404767:	48 85 c0             	test   %rax,%rax
  40476a:	74 76                	je     4047e2 <__ctype_b_loc@plt+0x2f22>
  40476c:	48 89 c7             	mov    %rax,%rdi
  40476f:	e8 7c cf ff ff       	callq  4016f0 <__strdup@plt>
  404774:	48 89 c5             	mov    %rax,%rbp
  404777:	e9 31 fb ff ff       	jmpq   4042ad <__ctype_b_loc@plt+0x29ed>
  40477c:	0f 1f 40 00          	nopl   0x0(%rax)
  404780:	4c 89 ff             	mov    %r15,%rdi
  404783:	e8 38 cf ff ff       	callq  4016c0 <rewinddir@plt>
  404788:	4c 89 ff             	mov    %r15,%rdi
  40478b:	e8 f0 cf ff ff       	callq  401780 <readdir@plt>
  404790:	48 85 c0             	test   %rax,%rax
  404793:	0f 84 bf 00 00 00    	je     404858 <__ctype_b_loc@plt+0x2f98>
  404799:	45 31 ed             	xor    %r13d,%r13d
  40479c:	e9 e6 fc ff ff       	jmpq   404487 <__ctype_b_loc@plt+0x2bc7>
  4047a1:	0f 1f 80 00 00 00 00 	nopl   0x0(%rax)
  4047a8:	89 cf                	mov    %ecx,%edi
  4047aa:	e8 01 cf ff ff       	callq  4016b0 <close@plt>
  4047af:	90                   	nop
  4047b0:	e9 40 ff ff ff       	jmpq   4046f5 <__ctype_b_loc@plt+0x2e35>
  4047b5:	0f 1f 00             	nopl   (%rax)
  4047b8:	c7 03 16 00 00 00    	movl   $0x16,(%rbx)
  4047be:	e9 ea fa ff ff       	jmpq   4042ad <__ctype_b_loc@plt+0x29ed>
  4047c3:	45 31 ed             	xor    %r13d,%r13d
  4047c6:	b9 9c ff ff ff       	mov    $0xffffff9c,%ecx
  4047cb:	44 8b 23             	mov    (%rbx),%r12d
  4047ce:	e9 19 ff ff ff       	jmpq   4046ec <__ctype_b_loc@plt+0x2e2c>
  4047d3:	48 8b 7c 24 30       	mov    0x30(%rsp),%rdi
  4047d8:	e8 43 cd ff ff       	callq  401520 <free@plt>
  4047dd:	e9 1f ff ff ff       	jmpq   404701 <__ctype_b_loc@plt+0x2e41>
  4047e2:	8b 03                	mov    (%rbx),%eax
  4047e4:	e9 33 fb ff ff       	jmpq   40431c <__ctype_b_loc@plt+0x2a5c>
  4047e9:	48 8b 6c 24 20       	mov    0x20(%rsp),%rbp
  4047ee:	44 89 e1             	mov    %r12d,%ecx
  4047f1:	41 bd 01 00 00 00    	mov    $0x1,%r13d
  4047f7:	eb d2                	jmp    4047cb <__ctype_b_loc@plt+0x2f0b>
  4047f9:	49 39 c5             	cmp    %rax,%r13
  4047fc:	0f 85 de fb ff ff    	jne    4043e0 <__ctype_b_loc@plt+0x2b20>
  404802:	e9 f4 fd ff ff       	jmpq   4045fb <__ctype_b_loc@plt+0x2d3b>
  404807:	66 0f 1f 84 00 00 00 	nopw   0x0(%rax,%rax,1)
  40480e:	00 00 
  404810:	48 8b 6c 24 20       	mov    0x20(%rsp),%rbp
  404815:	44 89 e1             	mov    %r12d,%ecx
  404818:	41 bd 01 00 00 00    	mov    $0x1,%r13d
  40481e:	4d 85 ff             	test   %r15,%r15
  404821:	44 8b 23             	mov    (%rbx),%r12d
  404824:	0f 84 c2 fe ff ff    	je     4046ec <__ctype_b_loc@plt+0x2e2c>
  40482a:	e9 af fe ff ff       	jmpq   4046de <__ctype_b_loc@plt+0x2e1e>
  40482f:	90                   	nop
  404830:	48 8b 6c 24 20       	mov    0x20(%rsp),%rbp
  404835:	89 c1                	mov    %eax,%ecx
  404837:	45 31 ed             	xor    %r13d,%r13d
  40483a:	eb e2                	jmp    40481e <__ctype_b_loc@plt+0x2f5e>
  40483c:	e8 ef cd ff ff       	callq  401630 <__stack_chk_fail@plt>
  404841:	48 83 6c 24 40 01    	subq   $0x1,0x40(%rsp)
  404847:	c6 40 ff 2f          	movb   $0x2f,-0x1(%rax)
  40484b:	e9 c5 fd ff ff       	jmpq   404615 <__ctype_b_loc@plt+0x2d55>
  404850:	45 31 ed             	xor    %r13d,%r13d
  404853:	e9 73 ff ff ff       	jmpq   4047cb <__ctype_b_loc@plt+0x2f0b>
  404858:	44 89 e1             	mov    %r12d,%ecx
  40485b:	44 8b 23             	mov    (%rbx),%r12d
  40485e:	48 8b 6c 24 20       	mov    0x20(%rsp),%rbp
  404863:	45 85 e4             	test   %r12d,%r12d
  404866:	0f 84 63 fe ff ff    	je     4046cf <__ctype_b_loc@plt+0x2e0f>
  40486c:	e9 6a fe ff ff       	jmpq   4046db <__ctype_b_loc@plt+0x2e1b>
  404871:	44 89 e1             	mov    %r12d,%ecx
  404874:	48 8b 6c 24 20       	mov    0x20(%rsp),%rbp
  404879:	c7 03 0c 00 00 00    	movl   $0xc,(%rbx)
  40487f:	41 bc 0c 00 00 00    	mov    $0xc,%r12d
  404885:	e9 51 fe ff ff       	jmpq   4046db <__ctype_b_loc@plt+0x2e1b>
  40488a:	44 89 e1             	mov    %r12d,%ecx
  40488d:	48 8b 6c 24 20       	mov    0x20(%rsp),%rbp
  404892:	c7 03 22 00 00 00    	movl   $0x22,(%rbx)
  404898:	41 bc 22 00 00 00    	mov    $0x22,%r12d
  40489e:	e9 38 fe ff ff       	jmpq   4046db <__ctype_b_loc@plt+0x2e1b>
  4048a3:	90                   	nop
  4048a4:	90                   	nop
  4048a5:	90                   	nop
  4048a6:	90                   	nop
  4048a7:	90                   	nop
  4048a8:	90                   	nop
  4048a9:	90                   	nop
  4048aa:	90                   	nop
  4048ab:	90                   	nop
  4048ac:	90                   	nop
  4048ad:	90                   	nop
  4048ae:	90                   	nop
  4048af:	90                   	nop
  4048b0:	41 57                	push   %r15
  4048b2:	44 8b 4e 34          	mov    0x34(%rsi),%r9d
  4048b6:	41 56                	push   %r14
  4048b8:	41 55                	push   %r13
  4048ba:	44 8b 6e 30          	mov    0x30(%rsi),%r13d
  4048be:	41 54                	push   %r12
  4048c0:	44 8b 26             	mov    (%rsi),%r12d
  4048c3:	45 89 ea             	mov    %r13d,%r10d
  4048c6:	55                   	push   %rbp
  4048c7:	49 63 e9             	movslq %r9d,%rbp
  4048ca:	45 89 e3             	mov    %r12d,%r11d
  4048cd:	53                   	push   %rbx
  4048ce:	48 8d 5f 08          	lea    0x8(%rdi),%rbx
  4048d2:	66 0f 1f 44 00 00    	nopw   0x0(%rax,%rax,1)
  4048d8:	45 39 d1             	cmp    %r10d,%r9d
  4048db:	7e 5a                	jle    404937 <__ctype_b_loc@plt+0x3077>
  4048dd:	45 39 cb             	cmp    %r9d,%r11d
  4048e0:	7e 55                	jle    404937 <__ctype_b_loc@plt+0x3077>
  4048e2:	45 89 df             	mov    %r11d,%r15d
  4048e5:	45 89 ce             	mov    %r9d,%r14d
  4048e8:	45 29 cf             	sub    %r9d,%r15d
  4048eb:	45 29 d6             	sub    %r10d,%r14d
  4048ee:	45 39 f7             	cmp    %r14d,%r15d
  4048f1:	7f 65                	jg     404958 <__ctype_b_loc@plt+0x3098>
  4048f3:	45 85 ff             	test   %r15d,%r15d
  4048f6:	7e 37                	jle    40492f <__ctype_b_loc@plt+0x306f>
  4048f8:	41 8d 4f ff          	lea    -0x1(%r15),%ecx
  4048fc:	49 63 d2             	movslq %r10d,%rdx
  4048ff:	48 8d 04 d7          	lea    (%rdi,%rdx,8),%rax
  404903:	48 01 d1             	add    %rdx,%rcx
  404906:	4c 8d 34 cb          	lea    (%rbx,%rcx,8),%r14
  40490a:	48 89 e9             	mov    %rbp,%rcx
  40490d:	48 29 d1             	sub    %rdx,%rcx
  404910:	48 89 ca             	mov    %rcx,%rdx
  404913:	0f 1f 44 00 00       	nopl   0x0(%rax,%rax,1)
  404918:	48 8b 08             	mov    (%rax),%rcx
  40491b:	4c 8b 04 d0          	mov    (%rax,%rdx,8),%r8
  40491f:	4c 89 00             	mov    %r8,(%rax)
  404922:	48 89 0c d0          	mov    %rcx,(%rax,%rdx,8)
  404926:	48 83 c0 08          	add    $0x8,%rax
  40492a:	4c 39 f0             	cmp    %r14,%rax
  40492d:	75 e9                	jne    404918 <__ctype_b_loc@plt+0x3058>
  40492f:	45 01 fa             	add    %r15d,%r10d
  404932:	45 39 d1             	cmp    %r10d,%r9d
  404935:	7f a6                	jg     4048dd <__ctype_b_loc@plt+0x301d>
  404937:	5b                   	pop    %rbx
  404938:	44 89 e0             	mov    %r12d,%eax
  40493b:	44 89 66 34          	mov    %r12d,0x34(%rsi)
  40493f:	5d                   	pop    %rbp
  404940:	44 29 c8             	sub    %r9d,%eax
  404943:	41 5c                	pop    %r12
  404945:	41 01 c5             	add    %eax,%r13d
  404948:	44 89 6e 30          	mov    %r13d,0x30(%rsi)
  40494c:	41 5d                	pop    %r13
  40494e:	41 5e                	pop    %r14
  404950:	41 5f                	pop    %r15
  404952:	c3                   	retq   
  404953:	0f 1f 44 00 00       	nopl   0x0(%rax,%rax,1)
  404958:	45 85 f6             	test   %r14d,%r14d
  40495b:	7e 3a                	jle    404997 <__ctype_b_loc@plt+0x30d7>
  40495d:	44 89 d2             	mov    %r10d,%edx
  404960:	45 8d 46 ff          	lea    -0x1(%r14),%r8d
  404964:	49 63 ca             	movslq %r10d,%rcx
  404967:	44 29 ca             	sub    %r9d,%edx
  40496a:	48 8d 04 cf          	lea    (%rdi,%rcx,8),%rax
  40496e:	44 01 da             	add    %r11d,%edx
  404971:	49 01 c8             	add    %rcx,%r8
  404974:	48 63 d2             	movslq %edx,%rdx
  404977:	4e 8d 3c c3          	lea    (%rbx,%r8,8),%r15
  40497b:	48 29 ca             	sub    %rcx,%rdx
  40497e:	66 90                	xchg   %ax,%ax
  404980:	48 8b 08             	mov    (%rax),%rcx
  404983:	4c 8b 04 d0          	mov    (%rax,%rdx,8),%r8
  404987:	4c 89 00             	mov    %r8,(%rax)
  40498a:	48 89 0c d0          	mov    %rcx,(%rax,%rdx,8)
  40498e:	48 83 c0 08          	add    $0x8,%rax
  404992:	4c 39 f8             	cmp    %r15,%rax
  404995:	75 e9                	jne    404980 <__ctype_b_loc@plt+0x30c0>
  404997:	45 29 f3             	sub    %r14d,%r11d
  40499a:	e9 39 ff ff ff       	jmpq   4048d8 <__ctype_b_loc@plt+0x3018>
  40499f:	90                   	nop
  4049a0:	41 57                	push   %r15
  4049a2:	41 56                	push   %r14
  4049a4:	41 55                	push   %r13
  4049a6:	41 89 fd             	mov    %edi,%r13d
  4049a9:	41 54                	push   %r12
  4049ab:	55                   	push   %rbp
  4049ac:	53                   	push   %rbx
  4049ad:	48 81 ec 88 00 00 00 	sub    $0x88,%rsp
  4049b4:	85 ff                	test   %edi,%edi
  4049b6:	4c 8b bc 24 c0 00 00 	mov    0xc0(%rsp),%r15
  4049bd:	00 
  4049be:	48 89 4c 24 28       	mov    %rcx,0x28(%rsp)
  4049c3:	48 89 74 24 20       	mov    %rsi,0x20(%rsp)
  4049c8:	48 89 54 24 08       	mov    %rdx,0x8(%rsp)
  4049cd:	4c 89 44 24 38       	mov    %r8,0x38(%rsp)
  4049d2:	44 89 4c 24 40       	mov    %r9d,0x40(%rsp)
  4049d7:	41 8b 4f 04          	mov    0x4(%r15),%ecx
  4049db:	89 4c 24 14          	mov    %ecx,0x14(%rsp)
  4049df:	0f 8e 05 02 00 00    	jle    404bea <__ctype_b_loc@plt+0x332a>
  4049e5:	41 8b 07             	mov    (%r15),%eax
  4049e8:	49 c7 47 10 00 00 00 	movq   $0x0,0x10(%r15)
  4049ef:	00 
  4049f0:	85 c0                	test   %eax,%eax
  4049f2:	0f 85 28 01 00 00    	jne    404b20 <__ctype_b_loc@plt+0x3260>
  4049f8:	41 c7 07 01 00 00 00 	movl   $0x1,(%r15)
  4049ff:	b8 01 00 00 00       	mov    $0x1,%eax
  404a04:	8b bc 24 c8 00 00 00 	mov    0xc8(%rsp),%edi
  404a0b:	41 89 47 34          	mov    %eax,0x34(%r15)
  404a0f:	41 89 47 30          	mov    %eax,0x30(%r15)
  404a13:	49 c7 47 20 00 00 00 	movq   $0x0,0x20(%r15)
  404a1a:	00 
  404a1b:	b8 01 00 00 00       	mov    $0x1,%eax
  404a20:	85 ff                	test   %edi,%edi
  404a22:	0f 84 f0 01 00 00    	je     404c18 <__ctype_b_loc@plt+0x3358>
  404a28:	48 8b 74 24 08       	mov    0x8(%rsp),%rsi
  404a2d:	41 89 47 2c          	mov    %eax,0x2c(%r15)
  404a31:	0f b6 16             	movzbl (%rsi),%edx
  404a34:	80 fa 2d             	cmp    $0x2d,%dl
  404a37:	0f 84 db 04 00 00    	je     404f18 <__ctype_b_loc@plt+0x3658>
  404a3d:	80 fa 2b             	cmp    $0x2b,%dl
  404a40:	0f 84 fa 04 00 00    	je     404f40 <__ctype_b_loc@plt+0x3680>
  404a46:	83 f0 01             	xor    $0x1,%eax
  404a49:	41 89 47 28          	mov    %eax,0x28(%r15)
  404a4d:	48 8b 54 24 08       	mov    0x8(%rsp),%rdx
  404a52:	41 c7 47 18 01 00 00 	movl   $0x1,0x18(%r15)
  404a59:	00 
  404a5a:	0f b6 02             	movzbl (%rdx),%eax
  404a5d:	3c 3a                	cmp    $0x3a,%al
  404a5f:	49 8b 6f 20          	mov    0x20(%r15),%rbp
  404a63:	b8 00 00 00 00       	mov    $0x0,%eax
  404a68:	0f 45 44 24 14       	cmovne 0x14(%rsp),%eax
  404a6d:	48 85 ed             	test   %rbp,%rbp
  404a70:	89 44 24 14          	mov    %eax,0x14(%rsp)
  404a74:	0f 84 e6 00 00 00    	je     404b60 <__ctype_b_loc@plt+0x32a0>
  404a7a:	44 0f b6 65 00       	movzbl 0x0(%rbp),%r12d
  404a7f:	45 84 e4             	test   %r12b,%r12b
  404a82:	0f 84 d8 00 00 00    	je     404b60 <__ctype_b_loc@plt+0x32a0>
  404a88:	48 83 7c 24 28 00    	cmpq   $0x0,0x28(%rsp)
  404a8e:	0f 84 c4 04 00 00    	je     404f58 <__ctype_b_loc@plt+0x3698>
  404a94:	41 8b 0f             	mov    (%r15),%ecx
  404a97:	48 8b 74 24 20       	mov    0x20(%rsp),%rsi
  404a9c:	48 63 c1             	movslq %ecx,%rax
  404a9f:	89 4c 24 44          	mov    %ecx,0x44(%rsp)
  404aa3:	48 8d 04 c6          	lea    (%rsi,%rax,8),%rax
  404aa7:	48 89 44 24 48       	mov    %rax,0x48(%rsp)
  404aac:	48 8b 00             	mov    (%rax),%rax
  404aaf:	0f be 70 01          	movsbl 0x1(%rax),%esi
  404ab3:	40 80 fe 2d          	cmp    $0x2d,%sil
  404ab7:	0f 84 93 01 00 00    	je     404c50 <__ctype_b_loc@plt+0x3390>
  404abd:	8b 54 24 40          	mov    0x40(%rsp),%edx
  404ac1:	85 d2                	test   %edx,%edx
  404ac3:	0f 85 67 01 00 00    	jne    404c30 <__ctype_b_loc@plt+0x3370>
  404ac9:	41 0f be dc          	movsbl %r12b,%ebx
  404acd:	48 83 c5 01          	add    $0x1,%rbp
  404ad1:	49 89 6f 20          	mov    %rbp,0x20(%r15)
  404ad5:	48 8b 7c 24 08       	mov    0x8(%rsp),%rdi
  404ada:	89 de                	mov    %ebx,%esi
  404adc:	e8 6f cb ff ff       	callq  401650 <strchr@plt>
  404ae1:	80 7d 00 00          	cmpb   $0x0,0x0(%rbp)
  404ae5:	75 04                	jne    404aeb <__ctype_b_loc@plt+0x322b>
  404ae7:	41 83 07 01          	addl   $0x1,(%r15)
  404aeb:	41 80 fc 3a          	cmp    $0x3a,%r12b
  404aef:	0f 85 bb 02 00 00    	jne    404db0 <__ctype_b_loc@plt+0x34f0>
  404af5:	8b 7c 24 14          	mov    0x14(%rsp),%edi
  404af9:	85 ff                	test   %edi,%edi
  404afb:	0f 85 df 02 00 00    	jne    404de0 <__ctype_b_loc@plt+0x3520>
  404b01:	41 89 5f 08          	mov    %ebx,0x8(%r15)
  404b05:	b8 3f 00 00 00       	mov    $0x3f,%eax
  404b0a:	48 81 c4 88 00 00 00 	add    $0x88,%rsp
  404b11:	5b                   	pop    %rbx
  404b12:	5d                   	pop    %rbp
  404b13:	41 5c                	pop    %r12
  404b15:	41 5d                	pop    %r13
  404b17:	41 5e                	pop    %r14
  404b19:	41 5f                	pop    %r15
  404b1b:	c3                   	retq   
  404b1c:	0f 1f 40 00          	nopl   0x0(%rax)
  404b20:	45 8b 47 18          	mov    0x18(%r15),%r8d
  404b24:	45 85 c0             	test   %r8d,%r8d
  404b27:	0f 84 d7 fe ff ff    	je     404a04 <__ctype_b_loc@plt+0x3144>
  404b2d:	48 8b 54 24 08       	mov    0x8(%rsp),%rdx
  404b32:	0f b6 02             	movzbl (%rdx),%eax
  404b35:	3c 2b                	cmp    $0x2b,%al
  404b37:	74 08                	je     404b41 <__ctype_b_loc@plt+0x3281>
  404b39:	3c 2d                	cmp    $0x2d,%al
  404b3b:	0f 85 1c ff ff ff    	jne    404a5d <__ctype_b_loc@plt+0x319d>
  404b41:	48 8b 54 24 08       	mov    0x8(%rsp),%rdx
  404b46:	0f b6 42 01          	movzbl 0x1(%rdx),%eax
  404b4a:	48 83 c2 01          	add    $0x1,%rdx
  404b4e:	48 89 54 24 08       	mov    %rdx,0x8(%rsp)
  404b53:	e9 05 ff ff ff       	jmpq   404a5d <__ctype_b_loc@plt+0x319d>
  404b58:	0f 1f 84 00 00 00 00 	nopl   0x0(%rax,%rax,1)
  404b5f:	00 
  404b60:	41 8b 0f             	mov    (%r15),%ecx
  404b63:	41 39 4f 34          	cmp    %ecx,0x34(%r15)
  404b67:	7e 04                	jle    404b6d <__ctype_b_loc@plt+0x32ad>
  404b69:	41 89 4f 34          	mov    %ecx,0x34(%r15)
  404b6d:	41 3b 4f 30          	cmp    0x30(%r15),%ecx
  404b71:	7d 04                	jge    404b77 <__ctype_b_loc@plt+0x32b7>
  404b73:	41 89 4f 30          	mov    %ecx,0x30(%r15)
  404b77:	41 83 7f 28 01       	cmpl   $0x1,0x28(%r15)
  404b7c:	0f 84 2e 03 00 00    	je     404eb0 <__ctype_b_loc@plt+0x35f0>
  404b82:	41 39 cd             	cmp    %ecx,%r13d
  404b85:	0f 84 15 03 00 00    	je     404ea0 <__ctype_b_loc@plt+0x35e0>
  404b8b:	48 8b 74 24 20       	mov    0x20(%rsp),%rsi
  404b90:	48 63 c1             	movslq %ecx,%rax
  404b93:	48 8b 04 c6          	mov    (%rsi,%rax,8),%rax
  404b97:	80 38 2d             	cmpb   $0x2d,(%rax)
  404b9a:	75 5c                	jne    404bf8 <__ctype_b_loc@plt+0x3338>
  404b9c:	80 78 01 2d          	cmpb   $0x2d,0x1(%rax)
  404ba0:	0f 85 ca 01 00 00    	jne    404d70 <__ctype_b_loc@plt+0x34b0>
  404ba6:	80 78 02 00          	cmpb   $0x0,0x2(%rax)
  404baa:	0f 85 c0 01 00 00    	jne    404d70 <__ctype_b_loc@plt+0x34b0>
  404bb0:	41 8b 47 30          	mov    0x30(%r15),%eax
  404bb4:	41 8b 57 34          	mov    0x34(%r15),%edx
  404bb8:	83 c1 01             	add    $0x1,%ecx
  404bbb:	41 89 0f             	mov    %ecx,(%r15)
  404bbe:	39 d0                	cmp    %edx,%eax
  404bc0:	0f 84 02 07 00 00    	je     4052c8 <__ctype_b_loc@plt+0x3a08>
  404bc6:	39 d1                	cmp    %edx,%ecx
  404bc8:	74 11                	je     404bdb <__ctype_b_loc@plt+0x331b>
  404bca:	48 8b 7c 24 20       	mov    0x20(%rsp),%rdi
  404bcf:	4c 89 fe             	mov    %r15,%rsi
  404bd2:	e8 d9 fc ff ff       	callq  4048b0 <__ctype_b_loc@plt+0x2ff0>
  404bd7:	41 8b 47 30          	mov    0x30(%r15),%eax
  404bdb:	45 89 6f 34          	mov    %r13d,0x34(%r15)
  404bdf:	45 89 2f             	mov    %r13d,(%r15)
  404be2:	44 39 e8             	cmp    %r13d,%eax
  404be5:	74 03                	je     404bea <__ctype_b_loc@plt+0x332a>
  404be7:	41 89 07             	mov    %eax,(%r15)
  404bea:	b8 ff ff ff ff       	mov    $0xffffffff,%eax
  404bef:	e9 16 ff ff ff       	jmpq   404b0a <__ctype_b_loc@plt+0x324a>
  404bf4:	0f 1f 40 00          	nopl   0x0(%rax)
  404bf8:	41 8b 77 28          	mov    0x28(%r15),%esi
  404bfc:	85 f6                	test   %esi,%esi
  404bfe:	74 ea                	je     404bea <__ctype_b_loc@plt+0x332a>
  404c00:	83 c1 01             	add    $0x1,%ecx
  404c03:	49 89 47 10          	mov    %rax,0x10(%r15)
  404c07:	b8 01 00 00 00       	mov    $0x1,%eax
  404c0c:	41 89 0f             	mov    %ecx,(%r15)
  404c0f:	e9 f6 fe ff ff       	jmpq   404b0a <__ctype_b_loc@plt+0x324a>
  404c14:	0f 1f 40 00          	nopl   0x0(%rax)
  404c18:	bf 92 5d 40 00       	mov    $0x405d92,%edi
  404c1d:	e8 ee c8 ff ff       	callq  401510 <getenv@plt>
  404c22:	48 85 c0             	test   %rax,%rax
  404c25:	0f 95 c0             	setne  %al
  404c28:	0f b6 c0             	movzbl %al,%eax
  404c2b:	e9 f8 fd ff ff       	jmpq   404a28 <__ctype_b_loc@plt+0x3168>
  404c30:	80 78 02 00          	cmpb   $0x0,0x2(%rax)
  404c34:	75 1a                	jne    404c50 <__ctype_b_loc@plt+0x3390>
  404c36:	48 8b 7c 24 08       	mov    0x8(%rsp),%rdi
  404c3b:	e8 10 ca ff ff       	callq  401650 <strchr@plt>
  404c40:	48 85 c0             	test   %rax,%rax
  404c43:	0f 85 80 fe ff ff    	jne    404ac9 <__ctype_b_loc@plt+0x3209>
  404c49:	0f 1f 80 00 00 00 00 	nopl   0x0(%rax)
  404c50:	45 84 e4             	test   %r12b,%r12b
  404c53:	0f 84 7f 06 00 00    	je     4052d8 <__ctype_b_loc@plt+0x3a18>
  404c59:	41 80 fc 3d          	cmp    $0x3d,%r12b
  404c5d:	0f 84 75 06 00 00    	je     4052d8 <__ctype_b_loc@plt+0x3a18>
  404c63:	49 89 ec             	mov    %rbp,%r12
  404c66:	eb 0c                	jmp    404c74 <__ctype_b_loc@plt+0x33b4>
  404c68:	0f 1f 84 00 00 00 00 	nopl   0x0(%rax,%rax,1)
  404c6f:	00 
  404c70:	84 c0                	test   %al,%al
  404c72:	74 0d                	je     404c81 <__ctype_b_loc@plt+0x33c1>
  404c74:	49 83 c4 01          	add    $0x1,%r12
  404c78:	41 0f b6 04 24       	movzbl (%r12),%eax
  404c7d:	3c 3d                	cmp    $0x3d,%al
  404c7f:	75 ef                	jne    404c70 <__ctype_b_loc@plt+0x33b0>
  404c81:	48 8b 4c 24 28       	mov    0x28(%rsp),%rcx
  404c86:	4c 89 e0             	mov    %r12,%rax
  404c89:	48 29 e8             	sub    %rbp,%rax
  404c8c:	89 44 24 30          	mov    %eax,0x30(%rsp)
  404c90:	4c 8b 31             	mov    (%rcx),%r14
  404c93:	4d 85 f6             	test   %r14,%r14
  404c96:	0f 84 44 06 00 00    	je     4052e0 <__ctype_b_loc@plt+0x3a20>
  404c9c:	89 c1                	mov    %eax,%ecx
  404c9e:	45 31 d2             	xor    %r10d,%r10d
  404ca1:	4c 89 64 24 58       	mov    %r12,0x58(%rsp)
  404ca6:	44 89 6c 24 64       	mov    %r13d,0x64(%rsp)
  404cab:	4c 89 7c 24 68       	mov    %r15,0x68(%rsp)
  404cb0:	45 31 e4             	xor    %r12d,%r12d
  404cb3:	48 8b 5c 24 28       	mov    0x28(%rsp),%rbx
  404cb8:	c7 44 24 60 00 00 00 	movl   $0x0,0x60(%rsp)
  404cbf:	00 
  404cc0:	49 89 cd             	mov    %rcx,%r13
  404cc3:	c7 44 24 50 ff ff ff 	movl   $0xffffffff,0x50(%rsp)
  404cca:	ff 
  404ccb:	48 c7 44 24 18 00 00 	movq   $0x0,0x18(%rsp)
  404cd2:	00 00 
  404cd4:	4d 89 d7             	mov    %r10,%r15
  404cd7:	eb 36                	jmp    404d0f <__ctype_b_loc@plt+0x344f>
  404cd9:	0f 1f 80 00 00 00 00 	nopl   0x0(%rax)
  404ce0:	bf 10 00 00 00       	mov    $0x10,%edi
  404ce5:	e8 a6 ca ff ff       	callq  401790 <malloc@plt>
  404cea:	48 8b 4c 24 18       	mov    0x18(%rsp),%rcx
  404cef:	48 89 18             	mov    %rbx,(%rax)
  404cf2:	48 89 44 24 18       	mov    %rax,0x18(%rsp)
  404cf7:	48 89 48 08          	mov    %rcx,0x8(%rax)
  404cfb:	48 83 c3 20          	add    $0x20,%rbx
  404cff:	41 83 c4 01          	add    $0x1,%r12d
  404d03:	4c 8b 33             	mov    (%rbx),%r14
  404d06:	4d 85 f6             	test   %r14,%r14
  404d09:	0f 84 31 01 00 00    	je     404e40 <__ctype_b_loc@plt+0x3580>
  404d0f:	4c 89 ea             	mov    %r13,%rdx
  404d12:	48 89 ee             	mov    %rbp,%rsi
  404d15:	4c 89 f7             	mov    %r14,%rdi
  404d18:	e8 33 c8 ff ff       	callq  401550 <strncmp@plt>
  404d1d:	85 c0                	test   %eax,%eax
  404d1f:	75 da                	jne    404cfb <__ctype_b_loc@plt+0x343b>
  404d21:	4c 89 f7             	mov    %r14,%rdi
  404d24:	e8 c7 c8 ff ff       	callq  4015f0 <strlen@plt>
  404d29:	39 44 24 30          	cmp    %eax,0x30(%rsp)
  404d2d:	0f 84 3d 02 00 00    	je     404f70 <__ctype_b_loc@plt+0x36b0>
  404d33:	4d 85 ff             	test   %r15,%r15
  404d36:	0f 84 e4 00 00 00    	je     404e20 <__ctype_b_loc@plt+0x3560>
  404d3c:	44 8b 74 24 40       	mov    0x40(%rsp),%r14d
  404d41:	45 85 f6             	test   %r14d,%r14d
  404d44:	75 9a                	jne    404ce0 <__ctype_b_loc@plt+0x3420>
  404d46:	8b 73 08             	mov    0x8(%rbx),%esi
  404d49:	41 39 77 08          	cmp    %esi,0x8(%r15)
  404d4d:	75 91                	jne    404ce0 <__ctype_b_loc@plt+0x3420>
  404d4f:	48 8b 43 10          	mov    0x10(%rbx),%rax
  404d53:	49 39 47 10          	cmp    %rax,0x10(%r15)
  404d57:	75 87                	jne    404ce0 <__ctype_b_loc@plt+0x3420>
  404d59:	8b 53 18             	mov    0x18(%rbx),%edx
  404d5c:	41 39 57 18          	cmp    %edx,0x18(%r15)
  404d60:	0f 85 7a ff ff ff    	jne    404ce0 <__ctype_b_loc@plt+0x3420>
  404d66:	eb 93                	jmp    404cfb <__ctype_b_loc@plt+0x343b>
  404d68:	0f 1f 84 00 00 00 00 	nopl   0x0(%rax,%rax,1)
  404d6f:	00 
  404d70:	0f b6 50 01          	movzbl 0x1(%rax),%edx
  404d74:	84 d2                	test   %dl,%dl
  404d76:	0f 84 7c fe ff ff    	je     404bf8 <__ctype_b_loc@plt+0x3338>
  404d7c:	48 83 7c 24 28 00    	cmpq   $0x0,0x28(%rsp)
  404d82:	0f 84 1e 05 00 00    	je     4052a6 <__ctype_b_loc@plt+0x39e6>
  404d88:	31 ed                	xor    %ebp,%ebp
  404d8a:	80 fa 2d             	cmp    $0x2d,%dl
  404d8d:	40 0f 94 c5          	sete   %bpl
  404d91:	48 83 c5 01          	add    $0x1,%rbp
  404d95:	48 01 c5             	add    %rax,%rbp
  404d98:	49 89 6f 20          	mov    %rbp,0x20(%r15)
  404d9c:	44 0f b6 65 00       	movzbl 0x0(%rbp),%r12d
  404da1:	e9 e2 fc ff ff       	jmpq   404a88 <__ctype_b_loc@plt+0x31c8>
  404da6:	66 2e 0f 1f 84 00 00 	nopw   %cs:0x0(%rax,%rax,1)
  404dad:	00 00 00 
  404db0:	48 85 c0             	test   %rax,%rax
  404db3:	0f 84 3c fd ff ff    	je     404af5 <__ctype_b_loc@plt+0x3235>
  404db9:	41 80 fc 3b          	cmp    $0x3b,%r12b
  404dbd:	0f 84 32 fd ff ff    	je     404af5 <__ctype_b_loc@plt+0x3235>
  404dc3:	80 38 57             	cmpb   $0x57,(%rax)
  404dc6:	0f b6 50 01          	movzbl 0x1(%rax),%edx
  404dca:	0f 84 9b 03 00 00    	je     40516b <__ctype_b_loc@plt+0x38ab>
  404dd0:	80 fa 3a             	cmp    $0x3a,%dl
  404dd3:	0f 84 a2 04 00 00    	je     40527b <__ctype_b_loc@plt+0x39bb>
  404dd9:	89 d8                	mov    %ebx,%eax
  404ddb:	e9 2a fd ff ff       	jmpq   404b0a <__ctype_b_loc@plt+0x324a>
  404de0:	48 8b 74 24 20       	mov    0x20(%rsp),%rsi
  404de5:	31 ff                	xor    %edi,%edi
  404de7:	ba 05 00 00 00       	mov    $0x5,%edx
  404dec:	48 8b 2e             	mov    (%rsi),%rbp
  404def:	be 68 6a 40 00       	mov    $0x406a68,%esi
  404df4:	e8 d7 c7 ff ff       	callq  4015d0 <dcgettext@plt>
  404df9:	48 8b 3d 68 34 20 00 	mov    0x203468(%rip),%rdi        # 608268 <stderr@@GLIBC_2.2.5>
  404e00:	48 89 c2             	mov    %rax,%rdx
  404e03:	41 89 d8             	mov    %ebx,%r8d
  404e06:	48 89 e9             	mov    %rbp,%rcx
  404e09:	be 01 00 00 00       	mov    $0x1,%esi
  404e0e:	31 c0                	xor    %eax,%eax
  404e10:	e8 6b ca ff ff       	callq  401880 <__fprintf_chk@plt>
  404e15:	e9 e7 fc ff ff       	jmpq   404b01 <__ctype_b_loc@plt+0x3241>
  404e1a:	66 0f 1f 44 00 00    	nopw   0x0(%rax,%rax,1)
  404e20:	49 89 df             	mov    %rbx,%r15
  404e23:	48 83 c3 20          	add    $0x20,%rbx
  404e27:	44 89 64 24 50       	mov    %r12d,0x50(%rsp)
  404e2c:	4c 8b 33             	mov    (%rbx),%r14
  404e2f:	41 83 c4 01          	add    $0x1,%r12d
  404e33:	4d 85 f6             	test   %r14,%r14
  404e36:	0f 85 d3 fe ff ff    	jne    404d0f <__ctype_b_loc@plt+0x344f>
  404e3c:	0f 1f 40 00          	nopl   0x0(%rax)
  404e40:	48 83 7c 24 18 00    	cmpq   $0x0,0x18(%rsp)
  404e46:	4d 89 fa             	mov    %r15,%r10
  404e49:	4c 8b 64 24 58       	mov    0x58(%rsp),%r12
  404e4e:	44 8b 6c 24 64       	mov    0x64(%rsp),%r13d
  404e53:	4c 8b 7c 24 68       	mov    0x68(%rsp),%r15
  404e58:	0f 84 56 01 00 00    	je     404fb4 <__ctype_b_loc@plt+0x36f4>
  404e5e:	44 8b 64 24 14       	mov    0x14(%rsp),%r12d
  404e63:	45 85 e4             	test   %r12d,%r12d
  404e66:	0f 85 04 02 00 00    	jne    405070 <__ctype_b_loc@plt+0x37b0>
  404e6c:	48 89 ef             	mov    %rbp,%rdi
  404e6f:	e8 7c c7 ff ff       	callq  4015f0 <strlen@plt>
  404e74:	48 01 c5             	add    %rax,%rbp
  404e77:	8b 44 24 44          	mov    0x44(%rsp),%eax
  404e7b:	41 c7 47 08 00 00 00 	movl   $0x0,0x8(%r15)
  404e82:	00 
  404e83:	49 89 6f 20          	mov    %rbp,0x20(%r15)
  404e87:	83 c0 01             	add    $0x1,%eax
  404e8a:	41 89 07             	mov    %eax,(%r15)
  404e8d:	b8 3f 00 00 00       	mov    $0x3f,%eax
  404e92:	e9 73 fc ff ff       	jmpq   404b0a <__ctype_b_loc@plt+0x324a>
  404e97:	66 0f 1f 84 00 00 00 	nopw   0x0(%rax,%rax,1)
  404e9e:	00 00 
  404ea0:	45 8b 6f 34          	mov    0x34(%r15),%r13d
  404ea4:	41 8b 47 30          	mov    0x30(%r15),%eax
  404ea8:	e9 35 fd ff ff       	jmpq   404be2 <__ctype_b_loc@plt+0x3322>
  404ead:	0f 1f 00             	nopl   (%rax)
  404eb0:	41 8b 57 30          	mov    0x30(%r15),%edx
  404eb4:	41 8b 47 34          	mov    0x34(%r15),%eax
  404eb8:	39 c2                	cmp    %eax,%edx
  404eba:	0f 84 f0 03 00 00    	je     4052b0 <__ctype_b_loc@plt+0x39f0>
  404ec0:	39 c1                	cmp    %eax,%ecx
  404ec2:	74 10                	je     404ed4 <__ctype_b_loc@plt+0x3614>
  404ec4:	48 8b 7c 24 20       	mov    0x20(%rsp),%rdi
  404ec9:	4c 89 fe             	mov    %r15,%rsi
  404ecc:	e8 df f9 ff ff       	callq  4048b0 <__ctype_b_loc@plt+0x2ff0>
  404ed1:	41 8b 0f             	mov    (%r15),%ecx
  404ed4:	41 39 cd             	cmp    %ecx,%r13d
  404ed7:	0f 8e ba 04 00 00    	jle    405397 <__ctype_b_loc@plt+0x3ad7>
  404edd:	48 8b 74 24 20       	mov    0x20(%rsp),%rsi
  404ee2:	48 63 c1             	movslq %ecx,%rax
  404ee5:	48 8d 14 c6          	lea    (%rsi,%rax,8),%rdx
  404ee9:	89 c8                	mov    %ecx,%eax
  404eeb:	eb 12                	jmp    404eff <__ctype_b_loc@plt+0x363f>
  404eed:	0f 1f 00             	nopl   (%rax)
  404ef0:	83 c0 01             	add    $0x1,%eax
  404ef3:	48 83 c2 08          	add    $0x8,%rdx
  404ef7:	44 39 e8             	cmp    %r13d,%eax
  404efa:	41 89 07             	mov    %eax,(%r15)
  404efd:	74 31                	je     404f30 <__ctype_b_loc@plt+0x3670>
  404eff:	48 8b 0a             	mov    (%rdx),%rcx
  404f02:	80 39 2d             	cmpb   $0x2d,(%rcx)
  404f05:	75 e9                	jne    404ef0 <__ctype_b_loc@plt+0x3630>
  404f07:	80 79 01 00          	cmpb   $0x0,0x1(%rcx)
  404f0b:	74 e3                	je     404ef0 <__ctype_b_loc@plt+0x3630>
  404f0d:	41 8b 0f             	mov    (%r15),%ecx
  404f10:	eb 20                	jmp    404f32 <__ctype_b_loc@plt+0x3672>
  404f12:	66 0f 1f 44 00 00    	nopw   0x0(%rax,%rax,1)
  404f18:	48 83 c6 01          	add    $0x1,%rsi
  404f1c:	41 c7 47 28 02 00 00 	movl   $0x2,0x28(%r15)
  404f23:	00 
  404f24:	48 89 74 24 08       	mov    %rsi,0x8(%rsp)
  404f29:	e9 1f fb ff ff       	jmpq   404a4d <__ctype_b_loc@plt+0x318d>
  404f2e:	66 90                	xchg   %ax,%ax
  404f30:	89 c1                	mov    %eax,%ecx
  404f32:	41 89 47 34          	mov    %eax,0x34(%r15)
  404f36:	e9 47 fc ff ff       	jmpq   404b82 <__ctype_b_loc@plt+0x32c2>
  404f3b:	0f 1f 44 00 00       	nopl   0x0(%rax,%rax,1)
  404f40:	41 c7 47 28 00 00 00 	movl   $0x0,0x28(%r15)
  404f47:	00 
  404f48:	48 83 44 24 08 01    	addq   $0x1,0x8(%rsp)
  404f4e:	e9 fa fa ff ff       	jmpq   404a4d <__ctype_b_loc@plt+0x318d>
  404f53:	0f 1f 44 00 00       	nopl   0x0(%rax,%rax,1)
  404f58:	48 83 c5 01          	add    $0x1,%rbp
  404f5c:	41 0f be dc          	movsbl %r12b,%ebx
  404f60:	49 89 6f 20          	mov    %rbp,0x20(%r15)
  404f64:	e9 6c fb ff ff       	jmpq   404ad5 <__ctype_b_loc@plt+0x3215>
  404f69:	0f 1f 80 00 00 00 00 	nopl   0x0(%rax)
  404f70:	48 83 7c 24 18 00    	cmpq   $0x0,0x18(%rsp)
  404f76:	44 89 64 24 60       	mov    %r12d,0x60(%rsp)
  404f7b:	44 8b 6c 24 64       	mov    0x64(%rsp),%r13d
  404f80:	4c 8b 64 24 58       	mov    0x58(%rsp),%r12
  404f85:	4c 8b 7c 24 68       	mov    0x68(%rsp),%r15
  404f8a:	74 1d                	je     404fa9 <__ctype_b_loc@plt+0x36e9>
  404f8c:	48 8b 7c 24 18       	mov    0x18(%rsp),%rdi
  404f91:	0f 1f 80 00 00 00 00 	nopl   0x0(%rax)
  404f98:	48 8b 6f 08          	mov    0x8(%rdi),%rbp
  404f9c:	e8 7f c5 ff ff       	callq  401520 <free@plt>
  404fa1:	48 85 ed             	test   %rbp,%rbp
  404fa4:	48 89 ef             	mov    %rbp,%rdi
  404fa7:	75 ef                	jne    404f98 <__ctype_b_loc@plt+0x36d8>
  404fa9:	8b 74 24 60          	mov    0x60(%rsp),%esi
  404fad:	49 89 da             	mov    %rbx,%r10
  404fb0:	89 74 24 50          	mov    %esi,0x50(%rsp)
  404fb4:	4d 85 d2             	test   %r10,%r10
  404fb7:	0f 84 23 03 00 00    	je     4052e0 <__ctype_b_loc@plt+0x3a20>
  404fbd:	41 8b 17             	mov    (%r15),%edx
  404fc0:	8d 42 01             	lea    0x1(%rdx),%eax
  404fc3:	41 89 07             	mov    %eax,(%r15)
  404fc6:	41 80 3c 24 00       	cmpb   $0x0,(%r12)
  404fcb:	0f 84 47 01 00 00    	je     405118 <__ctype_b_loc@plt+0x3858>
  404fd1:	41 8b 6a 08          	mov    0x8(%r10),%ebp
  404fd5:	85 ed                	test   %ebp,%ebp
  404fd7:	0f 85 8e 03 00 00    	jne    40536b <__ctype_b_loc@plt+0x3aab>
  404fdd:	8b 5c 24 14          	mov    0x14(%rsp),%ebx
  404fe1:	85 db                	test   %ebx,%ebx
  404fe3:	74 5c                	je     405041 <__ctype_b_loc@plt+0x3781>
  404fe5:	48 8b 74 24 20       	mov    0x20(%rsp),%rsi
  404fea:	48 98                	cltq   
  404fec:	48 8b 44 c6 f8       	mov    -0x8(%rsi,%rax,8),%rax
  404ff1:	80 78 01 2d          	cmpb   $0x2d,0x1(%rax)
  404ff5:	0f 84 3f 04 00 00    	je     40543a <__ctype_b_loc@plt+0x3b7a>
  404ffb:	48 8b 74 24 20       	mov    0x20(%rsp),%rsi
  405000:	0f be 28             	movsbl (%rax),%ebp
  405003:	ba 05 00 00 00       	mov    $0x5,%edx
  405008:	4d 8b 22             	mov    (%r10),%r12
  40500b:	31 ff                	xor    %edi,%edi
  40500d:	48 8b 1e             	mov    (%rsi),%rbx
  405010:	be e8 6a 40 00       	mov    $0x406ae8,%esi
  405015:	4c 89 14 24          	mov    %r10,(%rsp)
  405019:	e8 b2 c5 ff ff       	callq  4015d0 <dcgettext@plt>
  40501e:	48 8b 3d 43 32 20 00 	mov    0x203243(%rip),%rdi        # 608268 <stderr@@GLIBC_2.2.5>
  405025:	48 89 c2             	mov    %rax,%rdx
  405028:	4d 89 e1             	mov    %r12,%r9
  40502b:	41 89 e8             	mov    %ebp,%r8d
  40502e:	48 89 d9             	mov    %rbx,%rcx
  405031:	be 01 00 00 00       	mov    $0x1,%esi
  405036:	31 c0                	xor    %eax,%eax
  405038:	e8 43 c8 ff ff       	callq  401880 <__fprintf_chk@plt>
  40503d:	4c 8b 14 24          	mov    (%rsp),%r10
  405041:	49 8b 5f 20          	mov    0x20(%r15),%rbx
  405045:	4c 89 14 24          	mov    %r10,(%rsp)
  405049:	48 89 df             	mov    %rbx,%rdi
  40504c:	e8 9f c5 ff ff       	callq  4015f0 <strlen@plt>
  405051:	4c 8b 14 24          	mov    (%rsp),%r10
  405055:	48 01 c3             	add    %rax,%rbx
  405058:	49 89 5f 20          	mov    %rbx,0x20(%r15)
  40505c:	41 8b 42 18          	mov    0x18(%r10),%eax
  405060:	41 89 47 08          	mov    %eax,0x8(%r15)
  405064:	b8 3f 00 00 00       	mov    $0x3f,%eax
  405069:	e9 9c fa ff ff       	jmpq   404b0a <__ctype_b_loc@plt+0x324a>
  40506e:	66 90                	xchg   %ax,%ax
  405070:	48 8b 4c 24 48       	mov    0x48(%rsp),%rcx
  405075:	48 8b 74 24 20       	mov    0x20(%rsp),%rsi
  40507a:	ba 05 00 00 00       	mov    $0x5,%edx
  40507f:	48 8b 44 24 18       	mov    0x18(%rsp),%rax
  405084:	31 ff                	xor    %edi,%edi
  405086:	4c 89 54 24 70       	mov    %r10,0x70(%rsp)
  40508b:	48 8b 1e             	mov    (%rsi),%rbx
  40508e:	48 8b 29             	mov    (%rcx),%rbp
  405091:	be 88 6a 40 00       	mov    $0x406a88,%esi
  405096:	4c 89 14 24          	mov    %r10,(%rsp)
  40509a:	48 89 44 24 78       	mov    %rax,0x78(%rsp)
  40509f:	e8 2c c5 ff ff       	callq  4015d0 <dcgettext@plt>
  4050a4:	48 8b 3d bd 31 20 00 	mov    0x2031bd(%rip),%rdi        # 608268 <stderr@@GLIBC_2.2.5>
  4050ab:	48 89 d9             	mov    %rbx,%rcx
  4050ae:	48 89 c2             	mov    %rax,%rdx
  4050b1:	49 89 e8             	mov    %rbp,%r8
  4050b4:	be 01 00 00 00       	mov    $0x1,%esi
  4050b9:	31 c0                	xor    %eax,%eax
  4050bb:	48 8d 5c 24 70       	lea    0x70(%rsp),%rbx
  4050c0:	e8 bb c7 ff ff       	callq  401880 <__fprintf_chk@plt>
  4050c5:	4c 8b 14 24          	mov    (%rsp),%r10
  4050c9:	4c 89 d0             	mov    %r10,%rax
  4050cc:	eb 05                	jmp    4050d3 <__ctype_b_loc@plt+0x3813>
  4050ce:	66 90                	xchg   %ax,%ax
  4050d0:	48 8b 03             	mov    (%rbx),%rax
  4050d3:	48 8b 08             	mov    (%rax),%rcx
  4050d6:	48 8b 3d 8b 31 20 00 	mov    0x20318b(%rip),%rdi        # 608268 <stderr@@GLIBC_2.2.5>
  4050dd:	31 c0                	xor    %eax,%eax
  4050df:	ba 60 6a 40 00       	mov    $0x406a60,%edx
  4050e4:	be 01 00 00 00       	mov    $0x1,%esi
  4050e9:	e8 92 c7 ff ff       	callq  401880 <__fprintf_chk@plt>
  4050ee:	48 8b 5b 08          	mov    0x8(%rbx),%rbx
  4050f2:	48 85 db             	test   %rbx,%rbx
  4050f5:	75 d9                	jne    4050d0 <__ctype_b_loc@plt+0x3810>
  4050f7:	48 8b 35 6a 31 20 00 	mov    0x20316a(%rip),%rsi        # 608268 <stderr@@GLIBC_2.2.5>
  4050fe:	bf 0a 00 00 00       	mov    $0xa,%edi
  405103:	e8 d8 c5 ff ff       	callq  4016e0 <fputc@plt>
  405108:	41 8b 0f             	mov    (%r15),%ecx
  40510b:	49 8b 6f 20          	mov    0x20(%r15),%rbp
  40510f:	89 4c 24 44          	mov    %ecx,0x44(%rsp)
  405113:	e9 54 fd ff ff       	jmpq   404e6c <__ctype_b_loc@plt+0x35ac>
  405118:	41 83 7a 08 01       	cmpl   $0x1,0x8(%r10)
  40511d:	0f 84 55 02 00 00    	je     405378 <__ctype_b_loc@plt+0x3ab8>
  405123:	49 8b 5f 20          	mov    0x20(%r15),%rbx
  405127:	4c 89 14 24          	mov    %r10,(%rsp)
  40512b:	48 89 df             	mov    %rbx,%rdi
  40512e:	e8 bd c4 ff ff       	callq  4015f0 <strlen@plt>
  405133:	48 01 c3             	add    %rax,%rbx
  405136:	48 83 7c 24 38 00    	cmpq   $0x0,0x38(%rsp)
  40513c:	4c 8b 14 24          	mov    (%rsp),%r10
  405140:	49 89 5f 20          	mov    %rbx,0x20(%r15)
  405144:	74 0b                	je     405151 <__ctype_b_loc@plt+0x3891>
  405146:	8b 74 24 50          	mov    0x50(%rsp),%esi
  40514a:	48 8b 4c 24 38       	mov    0x38(%rsp),%rcx
  40514f:	89 31                	mov    %esi,(%rcx)
  405151:	49 8b 42 10          	mov    0x10(%r10),%rax
  405155:	48 85 c0             	test   %rax,%rax
  405158:	0f 84 40 02 00 00    	je     40539e <__ctype_b_loc@plt+0x3ade>
  40515e:	41 8b 52 18          	mov    0x18(%r10),%edx
  405162:	89 10                	mov    %edx,(%rax)
  405164:	31 c0                	xor    %eax,%eax
  405166:	e9 9f f9 ff ff       	jmpq   404b0a <__ctype_b_loc@plt+0x324a>
  40516b:	80 fa 3b             	cmp    $0x3b,%dl
  40516e:	0f 85 5c fc ff ff    	jne    404dd0 <__ctype_b_loc@plt+0x3510>
  405174:	48 83 7c 24 28 00    	cmpq   $0x0,0x28(%rsp)
  40517a:	0f 84 71 04 00 00    	je     4055f1 <__ctype_b_loc@plt+0x3d31>
  405180:	80 7d 00 00          	cmpb   $0x0,0x0(%rbp)
  405184:	0f 84 07 04 00 00    	je     405591 <__ctype_b_loc@plt+0x3cd1>
  40518a:	41 83 07 01          	addl   $0x1,(%r15)
  40518e:	49 89 6f 10          	mov    %rbp,0x10(%r15)
  405192:	49 89 6f 20          	mov    %rbp,0x20(%r15)
  405196:	0f b6 5d 00          	movzbl 0x0(%rbp),%ebx
  40519a:	48 89 6c 24 30       	mov    %rbp,0x30(%rsp)
  40519f:	80 fb 3d             	cmp    $0x3d,%bl
  4051a2:	74 1f                	je     4051c3 <__ctype_b_loc@plt+0x3903>
  4051a4:	84 db                	test   %bl,%bl
  4051a6:	74 1b                	je     4051c3 <__ctype_b_loc@plt+0x3903>
  4051a8:	48 89 e8             	mov    %rbp,%rax
  4051ab:	eb 05                	jmp    4051b2 <__ctype_b_loc@plt+0x38f2>
  4051ad:	84 db                	test   %bl,%bl
  4051af:	90                   	nop
  4051b0:	74 0c                	je     4051be <__ctype_b_loc@plt+0x38fe>
  4051b2:	48 83 c0 01          	add    $0x1,%rax
  4051b6:	0f b6 18             	movzbl (%rax),%ebx
  4051b9:	80 fb 3d             	cmp    $0x3d,%bl
  4051bc:	75 ef                	jne    4051ad <__ctype_b_loc@plt+0x38ed>
  4051be:	48 89 44 24 30       	mov    %rax,0x30(%rsp)
  4051c3:	48 8b 4c 24 28       	mov    0x28(%rsp),%rcx
  4051c8:	4c 8b 21             	mov    (%rcx),%r12
  4051cb:	4d 85 e4             	test   %r12,%r12
  4051ce:	0f 84 1d 04 00 00    	je     4055f1 <__ctype_b_loc@plt+0x3d31>
  4051d4:	4c 8b 4c 24 30       	mov    0x30(%rsp),%r9
  4051d9:	49 89 ce             	mov    %rcx,%r14
  4051dc:	45 31 c0             	xor    %r8d,%r8d
  4051df:	31 c9                	xor    %ecx,%ecx
  4051e1:	88 5c 24 48          	mov    %bl,0x48(%rsp)
  4051e5:	44 89 6c 24 60       	mov    %r13d,0x60(%rsp)
  4051ea:	4c 89 7c 24 50       	mov    %r15,0x50(%rsp)
  4051ef:	c7 44 24 44 00 00 00 	movl   $0x0,0x44(%rsp)
  4051f6:	00 
  4051f7:	4d 89 e7             	mov    %r12,%r15
  4051fa:	49 29 e9             	sub    %rbp,%r9
  4051fd:	c7 44 24 18 00 00 00 	movl   $0x0,0x18(%rsp)
  405204:	00 
  405205:	89 cb                	mov    %ecx,%ebx
  405207:	44 89 ce             	mov    %r9d,%esi
  40520a:	4d 89 c5             	mov    %r8,%r13
  40520d:	4d 89 cc             	mov    %r9,%r12
  405210:	48 89 74 24 28       	mov    %rsi,0x28(%rsp)
  405215:	eb 31                	jmp    405248 <__ctype_b_loc@plt+0x3988>
  405217:	8b 74 24 40          	mov    0x40(%rsp),%esi
  40521b:	85 f6                	test   %esi,%esi
  40521d:	75 0e                	jne    40522d <__ctype_b_loc@plt+0x396d>
  40521f:	41 8b 46 08          	mov    0x8(%r14),%eax
  405223:	41 39 45 08          	cmp    %eax,0x8(%r13)
  405227:	0f 84 08 03 00 00    	je     405535 <__ctype_b_loc@plt+0x3c75>
  40522d:	c7 44 24 18 01 00 00 	movl   $0x1,0x18(%rsp)
  405234:	00 
  405235:	49 83 c6 20          	add    $0x20,%r14
  405239:	83 c3 01             	add    $0x1,%ebx
  40523c:	4d 8b 3e             	mov    (%r14),%r15
  40523f:	4d 85 ff             	test   %r15,%r15
  405242:	0f 84 6f 02 00 00    	je     4054b7 <__ctype_b_loc@plt+0x3bf7>
  405248:	4c 89 e2             	mov    %r12,%rdx
  40524b:	48 89 ee             	mov    %rbp,%rsi
  40524e:	4c 89 ff             	mov    %r15,%rdi
  405251:	e8 fa c2 ff ff       	callq  401550 <strncmp@plt>
  405256:	85 c0                	test   %eax,%eax
  405258:	75 db                	jne    405235 <__ctype_b_loc@plt+0x3975>
  40525a:	4c 89 ff             	mov    %r15,%rdi
  40525d:	e8 8e c3 ff ff       	callq  4015f0 <strlen@plt>
  405262:	48 39 44 24 28       	cmp    %rax,0x28(%rsp)
  405267:	0f 84 20 04 00 00    	je     40568d <__ctype_b_loc@plt+0x3dcd>
  40526d:	4d 85 ed             	test   %r13,%r13
  405270:	75 a5                	jne    405217 <__ctype_b_loc@plt+0x3957>
  405272:	89 5c 24 44          	mov    %ebx,0x44(%rsp)
  405276:	4d 89 f5             	mov    %r14,%r13
  405279:	eb ba                	jmp    405235 <__ctype_b_loc@plt+0x3975>
  40527b:	80 78 02 3a          	cmpb   $0x3a,0x2(%rax)
  40527f:	0f 84 4b 01 00 00    	je     4053d0 <__ctype_b_loc@plt+0x3b10>
  405285:	80 7d 00 00          	cmpb   $0x0,0x0(%rbp)
  405289:	0f 84 18 01 00 00    	je     4053a7 <__ctype_b_loc@plt+0x3ae7>
  40528f:	41 83 07 01          	addl   $0x1,(%r15)
  405293:	49 89 6f 10          	mov    %rbp,0x10(%r15)
  405297:	89 d8                	mov    %ebx,%eax
  405299:	49 c7 47 20 00 00 00 	movq   $0x0,0x20(%r15)
  4052a0:	00 
  4052a1:	e9 64 f8 ff ff       	jmpq   404b0a <__ctype_b_loc@plt+0x324a>
  4052a6:	bd 01 00 00 00       	mov    $0x1,%ebp
  4052ab:	e9 e5 fa ff ff       	jmpq   404d95 <__ctype_b_loc@plt+0x34d5>
  4052b0:	39 d1                	cmp    %edx,%ecx
  4052b2:	0f 84 1c fc ff ff    	je     404ed4 <__ctype_b_loc@plt+0x3614>
  4052b8:	41 89 4f 30          	mov    %ecx,0x30(%r15)
  4052bc:	e9 13 fc ff ff       	jmpq   404ed4 <__ctype_b_loc@plt+0x3614>
  4052c1:	0f 1f 80 00 00 00 00 	nopl   0x0(%rax)
  4052c8:	41 89 4f 30          	mov    %ecx,0x30(%r15)
  4052cc:	89 c8                	mov    %ecx,%eax
  4052ce:	e9 08 f9 ff ff       	jmpq   404bdb <__ctype_b_loc@plt+0x331b>
  4052d3:	0f 1f 44 00 00       	nopl   0x0(%rax,%rax,1)
  4052d8:	49 89 ec             	mov    %rbp,%r12
  4052db:	e9 a1 f9 ff ff       	jmpq   404c81 <__ctype_b_loc@plt+0x33c1>
  4052e0:	44 8b 4c 24 40       	mov    0x40(%rsp),%r9d
  4052e5:	45 85 c9             	test   %r9d,%r9d
  4052e8:	0f 85 8c 01 00 00    	jne    40547a <__ctype_b_loc@plt+0x3bba>
  4052ee:	44 8b 44 24 14       	mov    0x14(%rsp),%r8d
  4052f3:	45 85 c0             	test   %r8d,%r8d
  4052f6:	74 55                	je     40534d <__ctype_b_loc@plt+0x3a8d>
  4052f8:	49 63 07             	movslq (%r15),%rax
  4052fb:	48 8b 74 24 20       	mov    0x20(%rsp),%rsi
  405300:	48 8b 04 c6          	mov    (%rsi,%rax,8),%rax
  405304:	80 78 01 2d          	cmpb   $0x2d,0x1(%rax)
  405308:	0f 84 aa 02 00 00    	je     4055b8 <__ctype_b_loc@plt+0x3cf8>
  40530e:	48 8b 74 24 20       	mov    0x20(%rsp),%rsi
  405313:	0f be 28             	movsbl (%rax),%ebp
  405316:	ba 05 00 00 00       	mov    $0x5,%edx
  40531b:	4d 8b 67 20          	mov    0x20(%r15),%r12
  40531f:	31 ff                	xor    %edi,%edi
  405321:	48 8b 1e             	mov    (%rsi),%rbx
  405324:	be 60 6b 40 00       	mov    $0x406b60,%esi
  405329:	e8 a2 c2 ff ff       	callq  4015d0 <dcgettext@plt>
  40532e:	48 8b 3d 33 2f 20 00 	mov    0x202f33(%rip),%rdi        # 608268 <stderr@@GLIBC_2.2.5>
  405335:	48 89 c2             	mov    %rax,%rdx
  405338:	4d 89 e1             	mov    %r12,%r9
  40533b:	41 89 e8             	mov    %ebp,%r8d
  40533e:	48 89 d9             	mov    %rbx,%rcx
  405341:	be 01 00 00 00       	mov    $0x1,%esi
  405346:	31 c0                	xor    %eax,%eax
  405348:	e8 33 c5 ff ff       	callq  401880 <__fprintf_chk@plt>
  40534d:	41 83 07 01          	addl   $0x1,(%r15)
  405351:	49 c7 47 20 83 6a 40 	movq   $0x406a83,0x20(%r15)
  405358:	00 
  405359:	41 c7 47 08 00 00 00 	movl   $0x0,0x8(%r15)
  405360:	00 
  405361:	b8 3f 00 00 00       	mov    $0x3f,%eax
  405366:	e9 9f f7 ff ff       	jmpq   404b0a <__ctype_b_loc@plt+0x324a>
  40536b:	49 83 c4 01          	add    $0x1,%r12
  40536f:	4d 89 67 10          	mov    %r12,0x10(%r15)
  405373:	e9 ab fd ff ff       	jmpq   405123 <__ctype_b_loc@plt+0x3863>
  405378:	41 39 c5             	cmp    %eax,%r13d
  40537b:	7e 74                	jle    4053f1 <__ctype_b_loc@plt+0x3b31>
  40537d:	48 8b 74 24 20       	mov    0x20(%rsp),%rsi
  405382:	48 98                	cltq   
  405384:	83 c2 02             	add    $0x2,%edx
  405387:	48 8b 04 c6          	mov    (%rsi,%rax,8),%rax
  40538b:	41 89 17             	mov    %edx,(%r15)
  40538e:	49 89 47 10          	mov    %rax,0x10(%r15)
  405392:	e9 8c fd ff ff       	jmpq   405123 <__ctype_b_loc@plt+0x3863>
  405397:	89 c8                	mov    %ecx,%eax
  405399:	e9 94 fb ff ff       	jmpq   404f32 <__ctype_b_loc@plt+0x3672>
  40539e:	41 8b 42 18          	mov    0x18(%r10),%eax
  4053a2:	e9 63 f7 ff ff       	jmpq   404b0a <__ctype_b_loc@plt+0x324a>
  4053a7:	41 8b 07             	mov    (%r15),%eax
  4053aa:	44 39 e8             	cmp    %r13d,%eax
  4053ad:	0f 84 b8 01 00 00    	je     40556b <__ctype_b_loc@plt+0x3cab>
  4053b3:	48 8b 74 24 20       	mov    0x20(%rsp),%rsi
  4053b8:	48 63 d0             	movslq %eax,%rdx
  4053bb:	83 c0 01             	add    $0x1,%eax
  4053be:	48 8b 14 d6          	mov    (%rsi,%rdx,8),%rdx
  4053c2:	41 89 07             	mov    %eax,(%r15)
  4053c5:	89 d8                	mov    %ebx,%eax
  4053c7:	49 89 57 10          	mov    %rdx,0x10(%r15)
  4053cb:	e9 c9 fe ff ff       	jmpq   405299 <__ctype_b_loc@plt+0x39d9>
  4053d0:	80 7d 00 00          	cmpb   $0x0,0x0(%rbp)
  4053d4:	0f 84 84 01 00 00    	je     40555e <__ctype_b_loc@plt+0x3c9e>
  4053da:	41 83 07 01          	addl   $0x1,(%r15)
  4053de:	49 89 6f 10          	mov    %rbp,0x10(%r15)
  4053e2:	49 c7 47 20 00 00 00 	movq   $0x0,0x20(%r15)
  4053e9:	00 
  4053ea:	89 d8                	mov    %ebx,%eax
  4053ec:	e9 19 f7 ff ff       	jmpq   404b0a <__ctype_b_loc@plt+0x324a>
  4053f1:	44 8b 5c 24 14       	mov    0x14(%rsp),%r11d
  4053f6:	45 85 db             	test   %r11d,%r11d
  4053f9:	0f 85 04 02 00 00    	jne    405603 <__ctype_b_loc@plt+0x3d43>
  4053ff:	49 8b 5f 20          	mov    0x20(%r15),%rbx
  405403:	4c 89 14 24          	mov    %r10,(%rsp)
  405407:	48 89 df             	mov    %rbx,%rdi
  40540a:	e8 e1 c1 ff ff       	callq  4015f0 <strlen@plt>
  40540f:	4c 8b 14 24          	mov    (%rsp),%r10
  405413:	48 01 c3             	add    %rax,%rbx
  405416:	48 8b 54 24 08       	mov    0x8(%rsp),%rdx
  40541b:	49 89 5f 20          	mov    %rbx,0x20(%r15)
  40541f:	41 8b 42 18          	mov    0x18(%r10),%eax
  405423:	41 89 47 08          	mov    %eax,0x8(%r15)
  405427:	80 3a 3a             	cmpb   $0x3a,(%rdx)
  40542a:	0f 85 31 ff ff ff    	jne    405361 <__ctype_b_loc@plt+0x3aa1>
  405430:	b8 3a 00 00 00       	mov    $0x3a,%eax
  405435:	e9 d0 f6 ff ff       	jmpq   404b0a <__ctype_b_loc@plt+0x324a>
  40543a:	49 8b 2a             	mov    (%r10),%rbp
  40543d:	48 8b 1e             	mov    (%rsi),%rbx
  405440:	ba 05 00 00 00       	mov    $0x5,%edx
  405445:	be b8 6a 40 00       	mov    $0x406ab8,%esi
  40544a:	31 ff                	xor    %edi,%edi
  40544c:	4c 89 14 24          	mov    %r10,(%rsp)
  405450:	e8 7b c1 ff ff       	callq  4015d0 <dcgettext@plt>
  405455:	48 8b 3d 0c 2e 20 00 	mov    0x202e0c(%rip),%rdi        # 608268 <stderr@@GLIBC_2.2.5>
  40545c:	48 89 c2             	mov    %rax,%rdx
  40545f:	49 89 e8             	mov    %rbp,%r8
  405462:	48 89 d9             	mov    %rbx,%rcx
  405465:	be 01 00 00 00       	mov    $0x1,%esi
  40546a:	31 c0                	xor    %eax,%eax
  40546c:	e8 0f c4 ff ff       	callq  401880 <__fprintf_chk@plt>
  405471:	4c 8b 14 24          	mov    (%rsp),%r10
  405475:	e9 c7 fb ff ff       	jmpq   405041 <__ctype_b_loc@plt+0x3781>
  40547a:	49 63 07             	movslq (%r15),%rax
  40547d:	48 8b 74 24 20       	mov    0x20(%rsp),%rsi
  405482:	48 8b 04 c6          	mov    (%rsi,%rax,8),%rax
  405486:	80 78 01 2d          	cmpb   $0x2d,0x1(%rax)
  40548a:	0f 84 5e fe ff ff    	je     4052ee <__ctype_b_loc@plt+0x3a2e>
  405490:	49 8b 6f 20          	mov    0x20(%r15),%rbp
  405494:	48 8b 7c 24 08       	mov    0x8(%rsp),%rdi
  405499:	44 0f b6 65 00       	movzbl 0x0(%rbp),%r12d
  40549e:	41 0f be dc          	movsbl %r12b,%ebx
  4054a2:	89 de                	mov    %ebx,%esi
  4054a4:	e8 a7 c1 ff ff       	callq  401650 <strchr@plt>
  4054a9:	48 85 c0             	test   %rax,%rax
  4054ac:	0f 85 1b f6 ff ff    	jne    404acd <__ctype_b_loc@plt+0x320d>
  4054b2:	e9 37 fe ff ff       	jmpq   4052ee <__ctype_b_loc@plt+0x3a2e>
  4054b7:	8b 4c 24 18          	mov    0x18(%rsp),%ecx
  4054bb:	4d 89 e8             	mov    %r13,%r8
  4054be:	0f b6 5c 24 48       	movzbl 0x48(%rsp),%ebx
  4054c3:	44 8b 6c 24 60       	mov    0x60(%rsp),%r13d
  4054c8:	4c 8b 7c 24 50       	mov    0x50(%rsp),%r15
  4054cd:	85 c9                	test   %ecx,%ecx
  4054cf:	0f 84 73 01 00 00    	je     405648 <__ctype_b_loc@plt+0x3d88>
  4054d5:	8b 54 24 14          	mov    0x14(%rsp),%edx
  4054d9:	85 d2                	test   %edx,%edx
  4054db:	74 39                	je     405516 <__ctype_b_loc@plt+0x3c56>
  4054dd:	48 8b 74 24 20       	mov    0x20(%rsp),%rsi
  4054e2:	ba 05 00 00 00       	mov    $0x5,%edx
  4054e7:	31 ff                	xor    %edi,%edi
  4054e9:	48 8b 1e             	mov    (%rsi),%rbx
  4054ec:	be b0 6b 40 00       	mov    $0x406bb0,%esi
  4054f1:	e8 da c0 ff ff       	callq  4015d0 <dcgettext@plt>
  4054f6:	48 8b 3d 6b 2d 20 00 	mov    0x202d6b(%rip),%rdi        # 608268 <stderr@@GLIBC_2.2.5>
  4054fd:	49 89 e8             	mov    %rbp,%r8
  405500:	48 89 c2             	mov    %rax,%rdx
  405503:	48 89 d9             	mov    %rbx,%rcx
  405506:	be 01 00 00 00       	mov    $0x1,%esi
  40550b:	31 c0                	xor    %eax,%eax
  40550d:	e8 6e c3 ff ff       	callq  401880 <__fprintf_chk@plt>
  405512:	49 8b 6f 20          	mov    0x20(%r15),%rbp
  405516:	48 89 ef             	mov    %rbp,%rdi
  405519:	e8 d2 c0 ff ff       	callq  4015f0 <strlen@plt>
  40551e:	4c 8d 44 05 00       	lea    0x0(%rbp,%rax,1),%r8
  405523:	41 83 07 01          	addl   $0x1,(%r15)
  405527:	b8 3f 00 00 00       	mov    $0x3f,%eax
  40552c:	4d 89 47 20          	mov    %r8,0x20(%r15)
  405530:	e9 d5 f5 ff ff       	jmpq   404b0a <__ctype_b_loc@plt+0x324a>
  405535:	49 8b 56 10          	mov    0x10(%r14),%rdx
  405539:	49 39 55 10          	cmp    %rdx,0x10(%r13)
  40553d:	0f 85 ea fc ff ff    	jne    40522d <__ctype_b_loc@plt+0x396d>
  405543:	41 8b 4e 18          	mov    0x18(%r14),%ecx
  405547:	41 39 4d 18          	cmp    %ecx,0x18(%r13)
  40554b:	b8 01 00 00 00       	mov    $0x1,%eax
  405550:	0f 44 44 24 18       	cmove  0x18(%rsp),%eax
  405555:	89 44 24 18          	mov    %eax,0x18(%rsp)
  405559:	e9 d7 fc ff ff       	jmpq   405235 <__ctype_b_loc@plt+0x3975>
  40555e:	49 c7 47 10 00 00 00 	movq   $0x0,0x10(%r15)
  405565:	00 
  405566:	e9 77 fe ff ff       	jmpq   4053e2 <__ctype_b_loc@plt+0x3b22>
  40556b:	8b 44 24 14          	mov    0x14(%rsp),%eax
  40556f:	85 c0                	test   %eax,%eax
  405571:	0f 85 87 01 00 00    	jne    4056fe <__ctype_b_loc@plt+0x3e3e>
  405577:	48 8b 54 24 08       	mov    0x8(%rsp),%rdx
  40557c:	31 c0                	xor    %eax,%eax
  40557e:	41 89 5f 08          	mov    %ebx,0x8(%r15)
  405582:	80 3a 3a             	cmpb   $0x3a,(%rdx)
  405585:	0f 95 c0             	setne  %al
  405588:	8d 44 80 3a          	lea    0x3a(%rax,%rax,4),%eax
  40558c:	e9 08 fd ff ff       	jmpq   405299 <__ctype_b_loc@plt+0x39d9>
  405591:	41 8b 07             	mov    (%r15),%eax
  405594:	44 39 e8             	cmp    %r13d,%eax
  405597:	0f 84 9b 01 00 00    	je     405738 <__ctype_b_loc@plt+0x3e78>
  40559d:	48 8b 74 24 20       	mov    0x20(%rsp),%rsi
  4055a2:	48 63 d0             	movslq %eax,%rdx
  4055a5:	83 c0 01             	add    $0x1,%eax
  4055a8:	48 8b 2c d6          	mov    (%rsi,%rdx,8),%rbp
  4055ac:	41 89 07             	mov    %eax,(%r15)
  4055af:	49 89 6f 10          	mov    %rbp,0x10(%r15)
  4055b3:	e9 da fb ff ff       	jmpq   405192 <__ctype_b_loc@plt+0x38d2>
  4055b8:	48 8b 1e             	mov    (%rsi),%rbx
  4055bb:	49 8b 6f 20          	mov    0x20(%r15),%rbp
  4055bf:	31 ff                	xor    %edi,%edi
  4055c1:	ba 05 00 00 00       	mov    $0x5,%edx
  4055c6:	be 40 6b 40 00       	mov    $0x406b40,%esi
  4055cb:	e8 00 c0 ff ff       	callq  4015d0 <dcgettext@plt>
  4055d0:	48 8b 3d 91 2c 20 00 	mov    0x202c91(%rip),%rdi        # 608268 <stderr@@GLIBC_2.2.5>
  4055d7:	48 89 c2             	mov    %rax,%rdx
  4055da:	49 89 e8             	mov    %rbp,%r8
  4055dd:	48 89 d9             	mov    %rbx,%rcx
  4055e0:	be 01 00 00 00       	mov    $0x1,%esi
  4055e5:	31 c0                	xor    %eax,%eax
  4055e7:	e8 94 c2 ff ff       	callq  401880 <__fprintf_chk@plt>
  4055ec:	e9 5c fd ff ff       	jmpq   40534d <__ctype_b_loc@plt+0x3a8d>
  4055f1:	49 c7 47 20 00 00 00 	movq   $0x0,0x20(%r15)
  4055f8:	00 
  4055f9:	b8 57 00 00 00       	mov    $0x57,%eax
  4055fe:	e9 07 f5 ff ff       	jmpq   404b0a <__ctype_b_loc@plt+0x324a>
  405603:	48 8b 74 24 20       	mov    0x20(%rsp),%rsi
  405608:	49 8b 2a             	mov    (%r10),%rbp
  40560b:	ba 05 00 00 00       	mov    $0x5,%edx
  405610:	31 ff                	xor    %edi,%edi
  405612:	48 8b 1e             	mov    (%rsi),%rbx
  405615:	be 18 6b 40 00       	mov    $0x406b18,%esi
  40561a:	4c 89 14 24          	mov    %r10,(%rsp)
  40561e:	e8 ad bf ff ff       	callq  4015d0 <dcgettext@plt>
  405623:	48 8b 3d 3e 2c 20 00 	mov    0x202c3e(%rip),%rdi        # 608268 <stderr@@GLIBC_2.2.5>
  40562a:	48 89 c2             	mov    %rax,%rdx
  40562d:	49 89 e8             	mov    %rbp,%r8
  405630:	48 89 d9             	mov    %rbx,%rcx
  405633:	be 01 00 00 00       	mov    $0x1,%esi
  405638:	31 c0                	xor    %eax,%eax
  40563a:	e8 41 c2 ff ff       	callq  401880 <__fprintf_chk@plt>
  40563f:	4c 8b 14 24          	mov    (%rsp),%r10
  405643:	e9 b7 fd ff ff       	jmpq   4053ff <__ctype_b_loc@plt+0x3b3f>
  405648:	4d 85 c0             	test   %r8,%r8
  40564b:	74 a4                	je     4055f1 <__ctype_b_loc@plt+0x3d31>
  40564d:	84 db                	test   %bl,%bl
  40564f:	90                   	nop
  405650:	74 55                	je     4056a7 <__ctype_b_loc@plt+0x3de7>
  405652:	41 83 78 08 00       	cmpl   $0x0,0x8(%r8)
  405657:	0f 85 a8 01 00 00    	jne    405805 <__ctype_b_loc@plt+0x3f45>
  40565d:	83 7c 24 14 00       	cmpl   $0x0,0x14(%rsp)
  405662:	0f 85 1d 01 00 00    	jne    405785 <__ctype_b_loc@plt+0x3ec5>
  405668:	49 8b 57 20          	mov    0x20(%r15),%rdx
  40566c:	31 c0                	xor    %eax,%eax
  40566e:	48 83 c9 ff          	or     $0xffffffffffffffff,%rcx
  405672:	48 89 d7             	mov    %rdx,%rdi
  405675:	f2 ae                	repnz scas %es:(%rdi),%al
  405677:	48 f7 d1             	not    %rcx
  40567a:	48 8d 44 0a ff       	lea    -0x1(%rdx,%rcx,1),%rax
  40567f:	49 89 47 20          	mov    %rax,0x20(%r15)
  405683:	b8 3f 00 00 00       	mov    $0x3f,%eax
  405688:	e9 7d f4 ff ff       	jmpq   404b0a <__ctype_b_loc@plt+0x324a>
  40568d:	89 d9                	mov    %ebx,%ecx
  40568f:	44 8b 6c 24 60       	mov    0x60(%rsp),%r13d
  405694:	0f b6 5c 24 48       	movzbl 0x48(%rsp),%ebx
  405699:	4c 8b 7c 24 50       	mov    0x50(%rsp),%r15
  40569e:	89 4c 24 44          	mov    %ecx,0x44(%rsp)
  4056a2:	4d 89 f0             	mov    %r14,%r8
  4056a5:	eb a6                	jmp    40564d <__ctype_b_loc@plt+0x3d8d>
  4056a7:	41 83 78 08 01       	cmpl   $0x1,0x8(%r8)
  4056ac:	0f 84 ac 00 00 00    	je     40575e <__ctype_b_loc@plt+0x3e9e>
  4056b2:	49 c7 47 10 00 00 00 	movq   $0x0,0x10(%r15)
  4056b9:	00 
  4056ba:	31 c0                	xor    %eax,%eax
  4056bc:	48 83 c9 ff          	or     $0xffffffffffffffff,%rcx
  4056c0:	48 89 ef             	mov    %rbp,%rdi
  4056c3:	f2 ae                	repnz scas %es:(%rdi),%al
  4056c5:	48 83 7c 24 38 00    	cmpq   $0x0,0x38(%rsp)
  4056cb:	48 f7 d1             	not    %rcx
  4056ce:	48 8d 44 0d ff       	lea    -0x1(%rbp,%rcx,1),%rax
  4056d3:	49 89 47 20          	mov    %rax,0x20(%r15)
  4056d7:	74 0b                	je     4056e4 <__ctype_b_loc@plt+0x3e24>
  4056d9:	8b 74 24 44          	mov    0x44(%rsp),%esi
  4056dd:	48 8b 4c 24 38       	mov    0x38(%rsp),%rcx
  4056e2:	89 31                	mov    %esi,(%rcx)
  4056e4:	49 8b 40 10          	mov    0x10(%r8),%rax
  4056e8:	48 85 c0             	test   %rax,%rax
  4056eb:	0f 84 d1 00 00 00    	je     4057c2 <__ctype_b_loc@plt+0x3f02>
  4056f1:	41 8b 50 18          	mov    0x18(%r8),%edx
  4056f5:	89 10                	mov    %edx,(%rax)
  4056f7:	31 c0                	xor    %eax,%eax
  4056f9:	e9 0c f4 ff ff       	jmpq   404b0a <__ctype_b_loc@plt+0x324a>
  4056fe:	48 8b 74 24 20       	mov    0x20(%rsp),%rsi
  405703:	31 ff                	xor    %edi,%edi
  405705:	ba 05 00 00 00       	mov    $0x5,%edx
  40570a:	48 8b 2e             	mov    (%rsi),%rbp
  40570d:	be 80 6b 40 00       	mov    $0x406b80,%esi
  405712:	e8 b9 be ff ff       	callq  4015d0 <dcgettext@plt>
  405717:	48 8b 3d 4a 2b 20 00 	mov    0x202b4a(%rip),%rdi        # 608268 <stderr@@GLIBC_2.2.5>
  40571e:	48 89 c2             	mov    %rax,%rdx
  405721:	41 89 d8             	mov    %ebx,%r8d
  405724:	48 89 e9             	mov    %rbp,%rcx
  405727:	be 01 00 00 00       	mov    $0x1,%esi
  40572c:	31 c0                	xor    %eax,%eax
  40572e:	e8 4d c1 ff ff       	callq  401880 <__fprintf_chk@plt>
  405733:	e9 3f fe ff ff       	jmpq   405577 <__ctype_b_loc@plt+0x3cb7>
  405738:	83 7c 24 14 00       	cmpl   $0x0,0x14(%rsp)
  40573d:	0f 85 88 00 00 00    	jne    4057cb <__ctype_b_loc@plt+0x3f0b>
  405743:	48 8b 54 24 08       	mov    0x8(%rsp),%rdx
  405748:	41 89 5f 08          	mov    %ebx,0x8(%r15)
  40574c:	80 3a 3a             	cmpb   $0x3a,(%rdx)
  40574f:	0f 95 c0             	setne  %al
  405752:	8d 44 80 3a          	lea    0x3a(%rax,%rax,4),%eax
  405756:	0f be c0             	movsbl %al,%eax
  405759:	e9 ac f3 ff ff       	jmpq   404b0a <__ctype_b_loc@plt+0x324a>
  40575e:	41 8b 07             	mov    (%r15),%eax
  405761:	41 39 c5             	cmp    %eax,%r13d
  405764:	0f 8e ad 00 00 00    	jle    405817 <__ctype_b_loc@plt+0x3f57>
  40576a:	48 8b 74 24 20       	mov    0x20(%rsp),%rsi
  40576f:	48 63 d0             	movslq %eax,%rdx
  405772:	83 c0 01             	add    $0x1,%eax
  405775:	48 8b 14 d6          	mov    (%rsi,%rdx,8),%rdx
  405779:	41 89 07             	mov    %eax,(%r15)
  40577c:	49 89 57 10          	mov    %rdx,0x10(%r15)
  405780:	e9 35 ff ff ff       	jmpq   4056ba <__ctype_b_loc@plt+0x3dfa>
  405785:	48 8b 74 24 20       	mov    0x20(%rsp),%rsi
  40578a:	49 8b 28             	mov    (%r8),%rbp
  40578d:	31 ff                	xor    %edi,%edi
  40578f:	ba 05 00 00 00       	mov    $0x5,%edx
  405794:	48 8b 1e             	mov    (%rsi),%rbx
  405797:	be d8 6b 40 00       	mov    $0x406bd8,%esi
  40579c:	e8 2f be ff ff       	callq  4015d0 <dcgettext@plt>
  4057a1:	48 8b 3d c0 2a 20 00 	mov    0x202ac0(%rip),%rdi        # 608268 <stderr@@GLIBC_2.2.5>
  4057a8:	48 89 c2             	mov    %rax,%rdx
  4057ab:	49 89 e8             	mov    %rbp,%r8
  4057ae:	48 89 d9             	mov    %rbx,%rcx
  4057b1:	be 01 00 00 00       	mov    $0x1,%esi
  4057b6:	31 c0                	xor    %eax,%eax
  4057b8:	e8 c3 c0 ff ff       	callq  401880 <__fprintf_chk@plt>
  4057bd:	e9 a6 fe ff ff       	jmpq   405668 <__ctype_b_loc@plt+0x3da8>
  4057c2:	41 8b 40 18          	mov    0x18(%r8),%eax
  4057c6:	e9 3f f3 ff ff       	jmpq   404b0a <__ctype_b_loc@plt+0x324a>
  4057cb:	48 8b 74 24 20       	mov    0x20(%rsp),%rsi
  4057d0:	31 ff                	xor    %edi,%edi
  4057d2:	ba 05 00 00 00       	mov    $0x5,%edx
  4057d7:	48 8b 2e             	mov    (%rsi),%rbp
  4057da:	be 80 6b 40 00       	mov    $0x406b80,%esi
  4057df:	e8 ec bd ff ff       	callq  4015d0 <dcgettext@plt>
  4057e4:	48 8b 3d 7d 2a 20 00 	mov    0x202a7d(%rip),%rdi        # 608268 <stderr@@GLIBC_2.2.5>
  4057eb:	48 89 c2             	mov    %rax,%rdx
  4057ee:	41 89 d8             	mov    %ebx,%r8d
  4057f1:	48 89 e9             	mov    %rbp,%rcx
  4057f4:	be 01 00 00 00       	mov    $0x1,%esi
  4057f9:	31 c0                	xor    %eax,%eax
  4057fb:	e8 80 c0 ff ff       	callq  401880 <__fprintf_chk@plt>
  405800:	e9 3e ff ff ff       	jmpq   405743 <__ctype_b_loc@plt+0x3e83>
  405805:	4c 8b 64 24 30       	mov    0x30(%rsp),%r12
  40580a:	49 83 c4 01          	add    $0x1,%r12
  40580e:	4d 89 67 10          	mov    %r12,0x10(%r15)
  405812:	e9 a3 fe ff ff       	jmpq   4056ba <__ctype_b_loc@plt+0x3dfa>
  405817:	83 7c 24 14 00       	cmpl   $0x0,0x14(%rsp)
  40581c:	74 38                	je     405856 <__ctype_b_loc@plt+0x3f96>
  40581e:	48 8b 74 24 20       	mov    0x20(%rsp),%rsi
  405823:	49 8b 28             	mov    (%r8),%rbp
  405826:	ba 05 00 00 00       	mov    $0x5,%edx
  40582b:	31 ff                	xor    %edi,%edi
  40582d:	48 8b 1e             	mov    (%rsi),%rbx
  405830:	be 08 6c 40 00       	mov    $0x406c08,%esi
  405835:	e8 96 bd ff ff       	callq  4015d0 <dcgettext@plt>
  40583a:	48 8b 3d 27 2a 20 00 	mov    0x202a27(%rip),%rdi        # 608268 <stderr@@GLIBC_2.2.5>
  405841:	48 89 c2             	mov    %rax,%rdx
  405844:	49 89 e8             	mov    %rbp,%r8
  405847:	48 89 d9             	mov    %rbx,%rcx
  40584a:	be 01 00 00 00       	mov    $0x1,%esi
  40584f:	31 c0                	xor    %eax,%eax
  405851:	e8 2a c0 ff ff       	callq  401880 <__fprintf_chk@plt>
  405856:	49 8b 57 20          	mov    0x20(%r15),%rdx
  40585a:	31 c0                	xor    %eax,%eax
  40585c:	48 83 c9 ff          	or     $0xffffffffffffffff,%rcx
  405860:	48 89 d7             	mov    %rdx,%rdi
  405863:	f2 ae                	repnz scas %es:(%rdi),%al
  405865:	48 f7 d1             	not    %rcx
  405868:	48 8d 44 0a ff       	lea    -0x1(%rdx,%rcx,1),%rax
  40586d:	48 8b 54 24 08       	mov    0x8(%rsp),%rdx
  405872:	49 89 47 20          	mov    %rax,0x20(%r15)
  405876:	80 3a 3a             	cmpb   $0x3a,(%rdx)
  405879:	0f 85 e2 fa ff ff    	jne    405361 <__ctype_b_loc@plt+0x3aa1>
  40587f:	e9 ac fb ff ff       	jmpq   405430 <__ctype_b_loc@plt+0x3b70>
  405884:	66 66 66 2e 0f 1f 84 	data16 data16 nopw %cs:0x0(%rax,%rax,1)
  40588b:	00 00 00 00 00 
  405890:	48 83 ec 18          	sub    $0x18,%rsp
  405894:	8b 05 8e 29 20 00    	mov    0x20298e(%rip),%eax        # 608228 <__ctype_b_loc@plt+0x206968>
  40589a:	48 c7 04 24 e0 83 60 	movq   $0x6083e0,(%rsp)
  4058a1:	00 
  4058a2:	89 05 38 2b 20 00    	mov    %eax,0x202b38(%rip)        # 6083e0 <stderr@@GLIBC_2.2.5+0x178>
  4058a8:	8b 05 76 29 20 00    	mov    0x202976(%rip),%eax        # 608224 <__ctype_b_loc@plt+0x206964>
  4058ae:	89 05 30 2b 20 00    	mov    %eax,0x202b30(%rip)        # 6083e4 <stderr@@GLIBC_2.2.5+0x17c>
  4058b4:	8b 44 24 20          	mov    0x20(%rsp),%eax
  4058b8:	89 44 24 08          	mov    %eax,0x8(%rsp)
  4058bc:	e8 df f0 ff ff       	callq  4049a0 <__ctype_b_loc@plt+0x30e0>
  4058c1:	8b 15 19 2b 20 00    	mov    0x202b19(%rip),%edx        # 6083e0 <stderr@@GLIBC_2.2.5+0x178>
  4058c7:	89 15 5b 29 20 00    	mov    %edx,0x20295b(%rip)        # 608228 <__ctype_b_loc@plt+0x206968>
  4058cd:	48 8b 15 1c 2b 20 00 	mov    0x202b1c(%rip),%rdx        # 6083f0 <stderr@@GLIBC_2.2.5+0x188>
  4058d4:	48 89 15 3d 2b 20 00 	mov    %rdx,0x202b3d(%rip)        # 608418 <stderr@@GLIBC_2.2.5+0x1b0>
  4058db:	8b 15 07 2b 20 00    	mov    0x202b07(%rip),%edx        # 6083e8 <stderr@@GLIBC_2.2.5+0x180>
  4058e1:	89 15 39 29 20 00    	mov    %edx,0x202939(%rip)        # 608220 <__ctype_b_loc@plt+0x206960>
  4058e7:	48 83 c4 18          	add    $0x18,%rsp
  4058eb:	c3                   	retq   
  4058ec:	0f 1f 40 00          	nopl   0x0(%rax)
  4058f0:	48 83 ec 18          	sub    $0x18,%rsp
  4058f4:	45 31 c9             	xor    %r9d,%r9d
  4058f7:	45 31 c0             	xor    %r8d,%r8d
  4058fa:	c7 04 24 01 00 00 00 	movl   $0x1,(%rsp)
  405901:	31 c9                	xor    %ecx,%ecx
  405903:	e8 88 ff ff ff       	callq  405890 <__ctype_b_loc@plt+0x3fd0>
  405908:	48 83 c4 18          	add    $0x18,%rsp
  40590c:	c3                   	retq   
  40590d:	90                   	nop
  40590e:	90                   	nop
  40590f:	90                   	nop
  405910:	48 83 ec 18          	sub    $0x18,%rsp
  405914:	45 31 c9             	xor    %r9d,%r9d
  405917:	c7 04 24 00 00 00 00 	movl   $0x0,(%rsp)
  40591e:	e8 6d ff ff ff       	callq  405890 <__ctype_b_loc@plt+0x3fd0>
  405923:	48 83 c4 18          	add    $0x18,%rsp
  405927:	c3                   	retq   
  405928:	0f 1f 84 00 00 00 00 	nopl   0x0(%rax,%rax,1)
  40592f:	00 
  405930:	48 83 ec 18          	sub    $0x18,%rsp
  405934:	4c 89 0c 24          	mov    %r9,(%rsp)
  405938:	c7 44 24 08 00 00 00 	movl   $0x0,0x8(%rsp)
  40593f:	00 
  405940:	45 31 c9             	xor    %r9d,%r9d
  405943:	e8 58 f0 ff ff       	callq  4049a0 <__ctype_b_loc@plt+0x30e0>
  405948:	48 83 c4 18          	add    $0x18,%rsp
  40594c:	c3                   	retq   
  40594d:	0f 1f 00             	nopl   (%rax)
  405950:	48 83 ec 18          	sub    $0x18,%rsp
  405954:	41 b9 01 00 00 00    	mov    $0x1,%r9d
  40595a:	c7 04 24 00 00 00 00 	movl   $0x0,(%rsp)
  405961:	e8 2a ff ff ff       	callq  405890 <__ctype_b_loc@plt+0x3fd0>
  405966:	48 83 c4 18          	add    $0x18,%rsp
  40596a:	c3                   	retq   
  40596b:	0f 1f 44 00 00       	nopl   0x0(%rax,%rax,1)
  405970:	48 83 ec 18          	sub    $0x18,%rsp
  405974:	4c 89 0c 24          	mov    %r9,(%rsp)
  405978:	c7 44 24 08 00 00 00 	movl   $0x0,0x8(%rsp)
  40597f:	00 
  405980:	41 b9 01 00 00 00    	mov    $0x1,%r9d
  405986:	e8 15 f0 ff ff       	callq  4049a0 <__ctype_b_loc@plt+0x30e0>
  40598b:	48 83 c4 18          	add    $0x18,%rsp
  40598f:	c3                   	retq   
  405990:	53                   	push   %rbx
  405991:	be 56 62 40 00       	mov    $0x406256,%esi
  405996:	48 89 fb             	mov    %rdi,%rbx
  405999:	bf 01 00 00 00       	mov    $0x1,%edi
  40599e:	48 81 ec 90 00 00 00 	sub    $0x90,%rsp
  4059a5:	48 89 e2             	mov    %rsp,%rdx
  4059a8:	e8 53 bc ff ff       	callq  401600 <__lxstat@plt>
  4059ad:	85 c0                	test   %eax,%eax
  4059af:	75 1f                	jne    4059d0 <__ctype_b_loc@plt+0x4110>
  4059b1:	48 8b 44 24 08       	mov    0x8(%rsp),%rax
  4059b6:	48 89 03             	mov    %rax,(%rbx)
  4059b9:	48 8b 04 24          	mov    (%rsp),%rax
  4059bd:	48 89 43 08          	mov    %rax,0x8(%rbx)
  4059c1:	48 81 c4 90 00 00 00 	add    $0x90,%rsp
  4059c8:	48 89 d8             	mov    %rbx,%rax
  4059cb:	5b                   	pop    %rbx
  4059cc:	c3                   	retq   
  4059cd:	0f 1f 00             	nopl   (%rax)
  4059d0:	31 db                	xor    %ebx,%ebx
  4059d2:	48 81 c4 90 00 00 00 	add    $0x90,%rsp
  4059d9:	48 89 d8             	mov    %rbx,%rax
  4059dc:	5b                   	pop    %rbx
  4059dd:	c3                   	retq   
  4059de:	90                   	nop
  4059df:	90                   	nop
  4059e0:	48 89 5c 24 e8       	mov    %rbx,-0x18(%rsp)
  4059e5:	48 89 6c 24 f0       	mov    %rbp,-0x10(%rsp)
  4059ea:	48 89 fd             	mov    %rdi,%rbp
  4059ed:	4c 89 64 24 f8       	mov    %r12,-0x8(%rsp)
  4059f2:	48 83 ec 18          	sub    $0x18,%rsp
  4059f6:	e8 75 bb ff ff       	callq  401570 <__fpending@plt>
  4059fb:	8b 5d 00             	mov    0x0(%rbp),%ebx
  4059fe:	48 89 ef             	mov    %rbp,%rdi
  405a01:	49 89 c4             	mov    %rax,%r12
  405a04:	e8 77 00 00 00       	callq  405a80 <__ctype_b_loc@plt+0x41c0>
  405a09:	83 e3 20             	and    $0x20,%ebx
  405a0c:	85 c0                	test   %eax,%eax
  405a0e:	0f 95 c2             	setne  %dl
  405a11:	85 db                	test   %ebx,%ebx
  405a13:	75 2b                	jne    405a40 <__ctype_b_loc@plt+0x4180>
  405a15:	84 d2                	test   %dl,%dl
  405a17:	74 0f                	je     405a28 <__ctype_b_loc@plt+0x4168>
  405a19:	4d 85 e4             	test   %r12,%r12
  405a1c:	74 42                	je     405a60 <__ctype_b_loc@plt+0x41a0>
  405a1e:	bb ff ff ff ff       	mov    $0xffffffff,%ebx
  405a23:	0f 1f 44 00 00       	nopl   0x0(%rax,%rax,1)
  405a28:	89 d8                	mov    %ebx,%eax
  405a2a:	48 8b 6c 24 08       	mov    0x8(%rsp),%rbp
  405a2f:	48 8b 1c 24          	mov    (%rsp),%rbx
  405a33:	4c 8b 64 24 10       	mov    0x10(%rsp),%r12
  405a38:	48 83 c4 18          	add    $0x18,%rsp
  405a3c:	c3                   	retq   
  405a3d:	0f 1f 00             	nopl   (%rax)
  405a40:	84 d2                	test   %dl,%dl
  405a42:	bb ff ff ff ff       	mov    $0xffffffff,%ebx
  405a47:	75 df                	jne    405a28 <__ctype_b_loc@plt+0x4168>
  405a49:	e8 f2 ba ff ff       	callq  401540 <__errno_location@plt>
  405a4e:	c7 00 00 00 00 00    	movl   $0x0,(%rax)
  405a54:	eb d2                	jmp    405a28 <__ctype_b_loc@plt+0x4168>
  405a56:	66 2e 0f 1f 84 00 00 	nopw   %cs:0x0(%rax,%rax,1)
  405a5d:	00 00 00 
  405a60:	e8 db ba ff ff       	callq  401540 <__errno_location@plt>
  405a65:	83 38 09             	cmpl   $0x9,(%rax)
  405a68:	74 be                	je     405a28 <__ctype_b_loc@plt+0x4168>
  405a6a:	bb ff ff ff ff       	mov    $0xffffffff,%ebx
  405a6f:	eb b7                	jmp    405a28 <__ctype_b_loc@plt+0x4168>
  405a71:	90                   	nop
  405a72:	90                   	nop
  405a73:	90                   	nop
  405a74:	90                   	nop
  405a75:	90                   	nop
  405a76:	90                   	nop
  405a77:	90                   	nop
  405a78:	90                   	nop
  405a79:	90                   	nop
  405a7a:	90                   	nop
  405a7b:	90                   	nop
  405a7c:	90                   	nop
  405a7d:	90                   	nop
  405a7e:	90                   	nop
  405a7f:	90                   	nop
  405a80:	48 89 5c 24 e8       	mov    %rbx,-0x18(%rsp)
  405a85:	48 89 6c 24 f0       	mov    %rbp,-0x10(%rsp)
  405a8a:	48 89 fb             	mov    %rdi,%rbx
  405a8d:	4c 89 64 24 f8       	mov    %r12,-0x8(%rsp)
  405a92:	48 83 ec 18          	sub    $0x18,%rsp
  405a96:	e8 c5 bc ff ff       	callq  401760 <fileno@plt>
  405a9b:	85 c0                	test   %eax,%eax
  405a9d:	48 89 df             	mov    %rbx,%rdi
  405aa0:	78 6d                	js     405b0f <__ctype_b_loc@plt+0x424f>
  405aa2:	e8 19 bd ff ff       	callq  4017c0 <__freading@plt>
  405aa7:	85 c0                	test   %eax,%eax
  405aa9:	75 45                	jne    405af0 <__ctype_b_loc@plt+0x4230>
  405aab:	48 89 df             	mov    %rbx,%rdi
  405aae:	e8 7d 00 00 00       	callq  405b30 <__ctype_b_loc@plt+0x4270>
  405ab3:	85 c0                	test   %eax,%eax
  405ab5:	74 55                	je     405b0c <__ctype_b_loc@plt+0x424c>
  405ab7:	e8 84 ba ff ff       	callq  401540 <__errno_location@plt>
  405abc:	44 8b 20             	mov    (%rax),%r12d
  405abf:	48 89 df             	mov    %rbx,%rdi
  405ac2:	48 89 c5             	mov    %rax,%rbp
  405ac5:	e8 d6 ba ff ff       	callq  4015a0 <fclose@plt>
  405aca:	45 85 e4             	test   %r12d,%r12d
  405acd:	74 09                	je     405ad8 <__ctype_b_loc@plt+0x4218>
  405acf:	44 89 65 00          	mov    %r12d,0x0(%rbp)
  405ad3:	b8 ff ff ff ff       	mov    $0xffffffff,%eax
  405ad8:	48 8b 1c 24          	mov    (%rsp),%rbx
  405adc:	48 8b 6c 24 08       	mov    0x8(%rsp),%rbp
  405ae1:	4c 8b 64 24 10       	mov    0x10(%rsp),%r12
  405ae6:	48 83 c4 18          	add    $0x18,%rsp
  405aea:	c3                   	retq   
  405aeb:	0f 1f 44 00 00       	nopl   0x0(%rax,%rax,1)
  405af0:	48 89 df             	mov    %rbx,%rdi
  405af3:	e8 68 bc ff ff       	callq  401760 <fileno@plt>
  405af8:	31 f6                	xor    %esi,%esi
  405afa:	ba 01 00 00 00       	mov    $0x1,%edx
  405aff:	89 c7                	mov    %eax,%edi
  405b01:	e8 7a bb ff ff       	callq  401680 <lseek@plt>
  405b06:	48 83 f8 ff          	cmp    $0xffffffffffffffff,%rax
  405b0a:	75 9f                	jne    405aab <__ctype_b_loc@plt+0x41eb>
  405b0c:	48 89 df             	mov    %rbx,%rdi
  405b0f:	48 8b 1c 24          	mov    (%rsp),%rbx
  405b13:	48 8b 6c 24 08       	mov    0x8(%rsp),%rbp
  405b18:	4c 8b 64 24 10       	mov    0x10(%rsp),%r12
  405b1d:	48 83 c4 18          	add    $0x18,%rsp
  405b21:	e9 7a ba ff ff       	jmpq   4015a0 <fclose@plt>
  405b26:	90                   	nop
  405b27:	90                   	nop
  405b28:	90                   	nop
  405b29:	90                   	nop
  405b2a:	90                   	nop
  405b2b:	90                   	nop
  405b2c:	90                   	nop
  405b2d:	90                   	nop
  405b2e:	90                   	nop
  405b2f:	90                   	nop
  405b30:	48 85 ff             	test   %rdi,%rdi
  405b33:	53                   	push   %rbx
  405b34:	48 89 fb             	mov    %rdi,%rbx
  405b37:	74 09                	je     405b42 <__ctype_b_loc@plt+0x4282>
  405b39:	e8 82 bc ff ff       	callq  4017c0 <__freading@plt>
  405b3e:	85 c0                	test   %eax,%eax
  405b40:	75 0e                	jne    405b50 <__ctype_b_loc@plt+0x4290>
  405b42:	48 89 df             	mov    %rbx,%rdi
  405b45:	5b                   	pop    %rbx
  405b46:	e9 55 bc ff ff       	jmpq   4017a0 <fflush@plt>
  405b4b:	0f 1f 44 00 00       	nopl   0x0(%rax,%rax,1)
  405b50:	f7 03 00 01 00 00    	testl  $0x100,(%rbx)
  405b56:	74 ea                	je     405b42 <__ctype_b_loc@plt+0x4282>
  405b58:	48 89 df             	mov    %rbx,%rdi
  405b5b:	ba 01 00 00 00       	mov    $0x1,%edx
  405b60:	31 f6                	xor    %esi,%esi
  405b62:	e8 09 00 00 00       	callq  405b70 <__ctype_b_loc@plt+0x42b0>
  405b67:	48 89 df             	mov    %rbx,%rdi
  405b6a:	5b                   	pop    %rbx
  405b6b:	e9 30 bc ff ff       	jmpq   4017a0 <fflush@plt>
  405b70:	53                   	push   %rbx
  405b71:	48 89 fb             	mov    %rdi,%rbx
  405b74:	48 83 ec 10          	sub    $0x10,%rsp
  405b78:	48 8b 47 08          	mov    0x8(%rdi),%rax
  405b7c:	48 39 47 10          	cmp    %rax,0x10(%rdi)
  405b80:	74 0e                	je     405b90 <__ctype_b_loc@plt+0x42d0>
  405b82:	48 83 c4 10          	add    $0x10,%rsp
  405b86:	48 89 df             	mov    %rbx,%rdi
  405b89:	5b                   	pop    %rbx
  405b8a:	e9 a1 bc ff ff       	jmpq   401830 <fseeko@plt>
  405b8f:	90                   	nop
  405b90:	48 8b 47 20          	mov    0x20(%rdi),%rax
  405b94:	48 39 47 28          	cmp    %rax,0x28(%rdi)
  405b98:	75 e8                	jne    405b82 <__ctype_b_loc@plt+0x42c2>
  405b9a:	48 83 7f 48 00       	cmpq   $0x0,0x48(%rdi)
  405b9f:	75 e1                	jne    405b82 <__ctype_b_loc@plt+0x42c2>
  405ba1:	89 14 24             	mov    %edx,(%rsp)
  405ba4:	48 89 74 24 08       	mov    %rsi,0x8(%rsp)
  405ba9:	e8 b2 bb ff ff       	callq  401760 <fileno@plt>
  405bae:	8b 14 24             	mov    (%rsp),%edx
  405bb1:	48 8b 74 24 08       	mov    0x8(%rsp),%rsi
  405bb6:	89 c7                	mov    %eax,%edi
  405bb8:	e8 c3 ba ff ff       	callq  401680 <lseek@plt>
  405bbd:	48 83 f8 ff          	cmp    $0xffffffffffffffff,%rax
  405bc1:	74 0c                	je     405bcf <__ctype_b_loc@plt+0x430f>
  405bc3:	83 23 ef             	andl   $0xffffffef,(%rbx)
  405bc6:	48 89 83 90 00 00 00 	mov    %rax,0x90(%rbx)
  405bcd:	31 c0                	xor    %eax,%eax
  405bcf:	48 83 c4 10          	add    $0x10,%rsp
  405bd3:	5b                   	pop    %rbx
  405bd4:	c3                   	retq   
  405bd5:	90                   	nop
  405bd6:	90                   	nop
  405bd7:	90                   	nop
  405bd8:	90                   	nop
  405bd9:	90                   	nop
  405bda:	90                   	nop
  405bdb:	90                   	nop
  405bdc:	90                   	nop
  405bdd:	90                   	nop
  405bde:	90                   	nop
  405bdf:	90                   	nop
  405be0:	f3 c3                	repz retq 
  405be2:	66 66 66 66 66 2e 0f 	data16 data16 data16 data16 nopw %cs:0x0(%rax,%rax,1)
  405be9:	1f 84 00 00 00 00 00 
  405bf0:	48 89 6c 24 d8       	mov    %rbp,-0x28(%rsp)
  405bf5:	4c 89 64 24 e0       	mov    %r12,-0x20(%rsp)
  405bfa:	48 8d 2d e7 21 20 00 	lea    0x2021e7(%rip),%rbp        # 607de8 <__ctype_b_loc@plt+0x206528>
  405c01:	4c 8d 25 d8 21 20 00 	lea    0x2021d8(%rip),%r12        # 607de0 <__ctype_b_loc@plt+0x206520>
  405c08:	4c 89 6c 24 e8       	mov    %r13,-0x18(%rsp)
  405c0d:	4c 89 74 24 f0       	mov    %r14,-0x10(%rsp)
  405c12:	4c 89 7c 24 f8       	mov    %r15,-0x8(%rsp)
  405c17:	48 89 5c 24 d0       	mov    %rbx,-0x30(%rsp)
  405c1c:	48 83 ec 38          	sub    $0x38,%rsp
  405c20:	4c 29 e5             	sub    %r12,%rbp
  405c23:	41 89 fd             	mov    %edi,%r13d
  405c26:	49 89 f6             	mov    %rsi,%r14
  405c29:	48 c1 fd 03          	sar    $0x3,%rbp
  405c2d:	49 89 d7             	mov    %rdx,%r15
  405c30:	e8 bb b8 ff ff       	callq  4014f0 <getenv@plt-0x20>
  405c35:	48 85 ed             	test   %rbp,%rbp
  405c38:	74 1c                	je     405c56 <__ctype_b_loc@plt+0x4396>
  405c3a:	31 db                	xor    %ebx,%ebx
  405c3c:	0f 1f 40 00          	nopl   0x0(%rax)
  405c40:	4c 89 fa             	mov    %r15,%rdx
  405c43:	4c 89 f6             	mov    %r14,%rsi
  405c46:	44 89 ef             	mov    %r13d,%edi
  405c49:	41 ff 14 dc          	callq  *(%r12,%rbx,8)
  405c4d:	48 83 c3 01          	add    $0x1,%rbx
  405c51:	48 39 eb             	cmp    %rbp,%rbx
  405c54:	72 ea                	jb     405c40 <__ctype_b_loc@plt+0x4380>
  405c56:	48 8b 5c 24 08       	mov    0x8(%rsp),%rbx
  405c5b:	48 8b 6c 24 10       	mov    0x10(%rsp),%rbp
  405c60:	4c 8b 64 24 18       	mov    0x18(%rsp),%r12
  405c65:	4c 8b 6c 24 20       	mov    0x20(%rsp),%r13
  405c6a:	4c 8b 74 24 28       	mov    0x28(%rsp),%r14
  405c6f:	4c 8b 7c 24 30       	mov    0x30(%rsp),%r15
  405c74:	48 83 c4 38          	add    $0x38,%rsp
  405c78:	c3                   	retq   
  405c79:	90                   	nop
  405c7a:	90                   	nop
  405c7b:	90                   	nop
  405c7c:	90                   	nop
  405c7d:	90                   	nop
  405c7e:	90                   	nop
  405c7f:	90                   	nop
  405c80:	48 8b 05 59 23 20 00 	mov    0x202359(%rip),%rax        # 607fe0 <__ctype_b_loc@plt+0x206720>
  405c87:	48 85 c0             	test   %rax,%rax
  405c8a:	74 0a                	je     405c96 <__ctype_b_loc@plt+0x43d6>
  405c8c:	48 8b 10             	mov    (%rax),%rdx
  405c8f:	31 f6                	xor    %esi,%esi
  405c91:	e9 ba bb ff ff       	jmpq   401850 <__cxa_atexit@plt>
  405c96:	31 d2                	xor    %edx,%edx
  405c98:	eb f5                	jmp    405c8f <__ctype_b_loc@plt+0x43cf>
  405c9a:	90                   	nop
  405c9b:	90                   	nop
